(dp1
S'A'
I9
sS'C'
I8
sS'E'
I20
sS'D'
I19
sS'G'
I10
sS'F'
I2
sS'I'
I5
sS'M'
I6
sS'H'
I16
sS'STOP'
p2
I0
sS'L'
I4
sS'N'
I14
sS'Q'
I15
sS'P'
I11
sS'S'
I12
sS'R'
I17
sS'T'
I13
sS'W'
I1
sS'V'
I7
sS'Y'
I3
sS'K'
I18
s.