(lp0
S'ATGGATGTATTCATGAAANGACTTTCAAAGGNNNNGGANNNAGTNGTNGNTGCTNNTNNNAAAACCAAACAGGGTGTGGCAGAAGCAGCAGGAAAGACAAAAGAGGGCGTTCTCGGGGCAGGATCCAAAACCAAGGAGGGAGAGGTGGATGGTGTGGAAACCGTGGCTGAGAAGAACAAAGAGCGAGCTAGAGGGCCGCATCAGAGAAATAGTTATAACTCGTAGACCGTCGCCGACTTGAAAAAAAAAAGTAAATAGCACATAGACATGTAAAATGCAACTCACGTCNGNNGNNNNNNN'
p1
aS'ATGGATGTATTCATGAAANGACTTTCAAAGGNNNNGGANNNAGTNGTNGNTGCTNNTNNNAAAACCAAACAGGGTGTGGAAGAAGCAGCAGGAAAAACAAAAAAGGGTGTTGCCTTTCTAGGCTCCAAAACAGAGGAGGGAGTGGTGCATGGTGTGGCAACAGATGCTGAGAAGACCAAAGAGCTCTCTAGAGGGCAGCATCATGTAAATACATATACATCGTATAACGTCTTCTGCTGGCAAAAAAACAAAATACTATCATACAAATATATTCAAAATCATCACCATNCNNANNNNNNN'
p2
aS'GATGCTTCCTCTGCTGGTATGGTTGACGCCGNNNNTGANNNTCANAANGNGCTTNNTNNNATGCAACTGGACAATCAGAAAGAGATTGCCGAGATGCAAAATGAGACTCAAAAAGAGATTGCTGGCATTCAGTCGGCGACATCACGCCAGAATACGAAAGACCAGGTATATGCACAAAATGAGATGCTTACTTATCAACAGAAGGAAGCTCCGGCCAGAGTTGCGTCGATTATGGAAAACACAAATAGTTCCAAAAAACAGAAAGTGTCCGAAATTAAGATCTAACTCNTNACNNNNNNN'
p3
aS'ATGGATGTATTCATGAAAGGACTTTCAAAGGNNNNGGANNNAGTNGTNGNTGCTNNTNNNAAAACCAAACAGGGTGTGGCAGGAGCTCTCTAGAGGGCCGCATCAGGTAATTAGATATTACTCGCAAGCAGTATCCCGCTCGAAAAAAAAATATGAGCACAAGAAGCAAGAAAGACACAAACACACAAGACAAAAAGATTAGCGACACAATGGCTGAGCTACTCAGCAGACACACAGAAGATAGTGAACAGATAAGAGATCAAAGAATAATCACCTAGGTCTACACAANANNANNNNNNN'
p4
aS'GTTATAACCTCACACTCAATCTTTTATCACGNNNNCATNNNTGANTCNCNAGTGNNCNNNAGATTGCGATAAACGGTCACATTAAATTTAACCTAACTATTCTACTGCAACAACTGAACGGACTGGAAACACTGTCCATAATCATGGTGAGATCGGGAGAGCGGTTAAGAAGAAATGCCGAGACCGATCACGGATGCAGGCTGTGCCTCGCTAAAAAACAATCAAACCGAGCAAAATAACACAATACACAACCAACACTGCCAGTACAACCAAGAGTACGAGATACCTNANNCNNNNNNN'
p5
aS'ATGGATGTATTCATGAAAACCATTTCAAAGGNNNNGGANNNAGTNGTNGNTGCTNNTNNNAAAACAAAACAGGGTGTGGCAGAAGCAGCAGGAAAGCCAAAAGAGGGTGTTCTCTAGGTAGGATCCAAAACCCAGGAGGGAGTGGTGAGTGGGGTGGCAACAGTGGATGAGAAGAACAAAGCGAAAGTGCCAAAGGAGGGGGGGGCAGAGGGGACGGGTGTGACAGCAGTAGCAAAGAATGAAGTGGCGGGAACAAGAAGAATCGCCGAAGAACAGGGCTAGGTAACANANGANNNNNNN'
p6
aS'AGCCAGATGCCCAGAGATTAGAGCGCATGACNNNNAAANNNCGGNTGNCNGCGTNNTNNNAGGTTTTACCTCCAAATGAAGAAATAACATCATGGTAACGCTGCATGAAGTAATCACGTTCTTGGTCAGTATGCAAATTAGCATAAGCAGCTTGCAAACACATAAGGTCAAAAGCAGTGGTAGAAGTCGGCATTTGGCGAGAAAGCTCAGACTCAGGAGGAAACGGAGCCGTCCAAATGTATTAGAGATGGAAGCAAAGGAAAACATAACGAGCATAACCCTGATTAANCNNANNNNNNN'
p7
aS'CTCACAATGACAAATCTGTCCACGGAGTGCTNNNNCCANNNTACNAANCNGGGTNNCNNNGCGACGCCGTTCAACCAGATATTGAAGCATAACGCAAAAAGAGAGATGAGATTGAGGCTGGGTAAAGTTACTGTAGCCGACGTTTTGGCTGCGCAACCTGTGACGACAAATCTGCTCAAATTAATACGCGCTTCAATAAAAAAGATTGTCGTAACCAACCTGCAAGGATTTATCACTTCCATTACTCAGAATTAAAAACTTTAGAATACTTACGATACATCGAAAAAANANAANNNNNNN'
p8
aS'ATGGATGTATTCATGAAAGGACTTTCAAAGGNNNNGGANNNAGTNGTNGNTGCTNNTNNNAAAACCAAACAGGGTGTGGCAGAAGCAGCAGGAAAGACAAAAGAGCTCTCTAGAGGGCCGCATCATGTAATAAATTATAGCGTGTATGACGTTGTCTTATCACAAAAAAAAAAGACTAAAGAAAACTAGACAAATGTTGGTGCAGCAGAGAGAAGAGTGGGAAACACAGCAACCCAGAAAACAACTAAGTGCACAAGGAGCATAATAACAGCCAGAATATGGGACCAGNANAANNNNNNN'
p9
aS'TTCAAGGAGGACGGCAACATCCTGGGGCACANNNNGGANNNCAANTTNANCAGCNNCNNNGTCTATATCACGGCCGACAAGCAGAAGAACAGCATCAAGGCTAACTTCAAGATCCGCCACAACGTTGAGGACGGCAGCGTGAAGCTCGCCGAACACTACCAGCAGAACACCCACATCGGCGACGGCCCCGTACTGCTGCCCGACAACCACTAACTGAGCCATCAGTCCGCCCCGAGCAAAGAACCCACCAAAAATCCGCACCACCAGGCCCGAATGGAGTCCGTGACCNCNACNNNNNNN'
p10
aS'ATGGATGTATTCATGAAAGGACTTTCAAAGGNNNNGGANNNAGTNGTNGNTGCTNNTNNNAAAACCAAACAGGGTGTGGCAGAAGCAGCAGGAAAGACAAAAGAGCTCTCTAGAGGGCTGCATCATGTAACTAGTTATATATCGGATGCTGTAGTGTGAGTGAAAACAAAAAAGCACACAAAAAAGAGCACACAAGTCGTGTATATCTTGGAGACGGATATAGACACGATATACTCGTACAGAACGGACAGCGACATAAACATACTACATCAAACTATAGCCCACAAANANTANNNNNNN'
p11
aS'ATGGATGTATTCATGAAAGGACTTTCAAAGGNNNNGGANNNGGTNGTNGNTGCTNNTNNNAAAACCAAACAGGGTGTGGCAGAAGCAGCAGGAAAGACAAAAGAGGGTGTTCTCTATGTAGGCTCCAAAACCAAGGAGGGAGTGGTGCATGGTGTGGCAAAAGTGGCTGAGAAGACCAAAGAGCAAGCTAGAAGACTTCAACTAGCAATGAGTAAGAATGCATAAGCAGACGACTCCCTGAAAATAAAACAAAAAGGTGAACTATACATAACAAAGACCATACTCAGAAANCANNNNNNN'
p12
aS'CGGCGTTATAACCTCACACTCAATCTTTTATNNNNAAGNNNTGANTGNANCGCGNNTNNNCGGCAGATTGCGATAAACGGTCACATTAAATTTAAGCTGACTATTCCACTGCAACAACTGAACGGACTGGAAACACTGGTCATAATCAAGGTGGCGAATAAGTACGCGGTCTTGCAAATCACAAGAAGGCGGTGCCTGAATAAATGGGAAGCATTCAAGAAGAGGATAAGCAGGAGAAACAAACGAAGTCGCATAACAATACAAATGACCCTCACAAATAGTAAAATANANAANNNNNNN'
p13
aS'ATGGATGTATTCATGAAACAGCTTTCAAAGGNNNNGGANNNAGTNGTNGNTGCTNNTNNNAAAACCAAACAGGGTGTGGCAGAAGCAGCAGGAAAGACAAAAGAGGGTGTTCTCTATGTAGGCTCCAAAACCAAGGAGGGAGTGGTGCATGGTGTGGCAACAGTGGCTGAGAAGACCAAAGAGCAAGTGACAAATGTAGGAGGAGCAGGGGTGACGGGTGTGAAAACAGCAGCCCAGAAGACAGCGGAGGGAGAAGGGAGCATTGCAGCAGCACCTAGCTTTGGACAANANAANNNNNNN'
p14
aS'ATGGATGTATCCATGAAAGGACTTTCAAAGANNNNGGANNNAGTNGTNGNTGCTNNTNNNAAAACCAAACAGGGTGTGGCAGAAGCAGCAGGAAAGACAAAAGAGGGTGTTCTCTATGTAGGCTCCAAAACCAAGGAGGGAGTGGTGCATGGGGTGGCAACAGTGGCTGAGAAGACCAAAGAGCAATATAGAGGGCTGCAAACAGTAATGAGGTCTAACTCGTATGCAGGCATATGCAAGAAAAAAAAAAAAAAAAAGCAAAATGAAACATCAAACAAAATATAGCTCNANACNNNNNNN'
p15
aS'ATGGATGTATTCATGAAAGGACTTTCAAAGGNNNNGGANNNAGTNGTNGNTGCTNNTNNNAAAACCAAACAGAGGTTGGCAGAAGCAGCAGGAAAGACAAAAGAGGGTGTTCTCTATGTAGGCTCCAAAACCAAGGAGGGCGTGTTGCATGTTGTGGCAACGGTGGCTAAGAAGAACAAAGAGCAATGACCAAATGTTGGAAGAGCAGGGGTGACGGGTGTGCCAACAGTAGCACATAACACAGTGGAGGGATCAGGGAGCATTGAAGTACCCACTGGCTTTGTCCCANCNGANNNNNNN'
p16
aS'ATGGATGTATTCATGAAAGGACTTTCAAAGGNNNNGGANNNAGTNGTNGNTGCTNNTNNNAAAACCAAACAGGGTGTGGCAGAAGCAGCAGGAAAGACAAAAGAGCTCGCTAGAGGGCCGCATCATGTAATTAATTATAGATCGGATGCCGTCTTCTGCTTGAAAAAAAAAAAGCACAATGAGCCATCATGTAAGAATGGACAAGCAAATAGGAAGAGAGACAAAGCCAGTGTCAGCACTACAGAAAAGCGAACAGAAGAGAGATCAAGGACAACAAAAAGAGAACAANANAANNNNNNN'
p17
aS'ATGGATGTATTCATGAAAGGACTTTCAAAGGNNNNGGANNNAGTNGTNGNTGCTNNTNNNAAAACCAAACAGGGTGTGGCAGAAGCAGCAGGAAAGACAAAAGAGGGTGTTCTCTATGTAGGCGCCAAAACCAAGGAGAGCTCTCTAGAGGGCGGCATCATGTAAATAGTTAAAGATCGTATTCCGTCTTCTGCTTAGACAAAAATAAAACAACATATGATCTCATATGACAAACAATCAGCTTACACAAATACGTGACGTCAAAGGTAAATCTAGAACACCACACGGAGNACNNNNNNN'
p18
aS'GTCAGATATGGACCTTGCTGCTAAAGGTCTANNNNCTANNNAATNGANCNACTCNNTNNNAACCAAGCTGTCGCTACTTCCCAAGAAGCTGTTCAGAATCAGAATGAGCCGCAACTTCGGGATGAAAATGCTCACAATGACAAATATGACCAGATCGGAAGAGCGGTTCAGCAGGAAAGCCGAGACCGAACACGTATGCCATCTTCTGATTGAAAGAAAAAGCAAAAACATACATTGACGACTGTAAAATATATCGAGCACAAGACGACACTCCTCTGCCGAGTGAACNANAGNNNNNNN'
p19
aS'ATGGATGTATTCATGAAAGGACTTTCAAAGGNNNNGGANNNAGTNGTNGNTGCTNNTNNNAAAACCAAACAGGGTGTGGCAGAAGCAGCAGGAAAGACAAAAGAGCTCTCTAGAGGGCTGCATCATGAAATTAGTTATATCTCGTATGACGTCTTCTGCTTGTAAAAAAAAAAATATAAGAATGTGCATCCACTGAGCGAGCCAAAGCAACAAATAAACTAGCAGAAGGAAGACTATAAGCTATAACAAGAGGCATAAAGCTAAGTACAAGAACTAGACACGTCTACCNGNAANNNNNNN'
p20
aS'ATGGATGTATTCATGAAAGGACTTTCAAAGGNNNNGGANNNAGTNGTNGNTGCTNNTNNNACAGCCAAACAGGGTGTGGCAGAAGCAGCAGGAGAGCCAAAAGAGCTCTCTAGAGGGCTGCATCATGTAATTAGTTATATCTCTTATGCCGGCTTCTTCTTGACAAAAAAAAATACACAATAACTAGCTAGTAATCGTTTGTTAGCAAAGATAAATCAACTACGTAAAAGTACAAGACCAAACGTTTTAGAAAAGAGTAATACAGCTCTATAACAATAATAACACTCGNANNCNNNNNNN'
p21
aS'ATGGATGTATTCATGAAAGGACTTTCAAAGGNNNNGGANNNAGTNGTNGNTGCTNNTNNNAAAACCAAACAGGGTGTGGCAGAAGCAGCAGGAAAGACAAAAGAGGGTGTTCTCTATGTAGGCTCCAAAACCAAGGAGGGAGTGGTGCATGGTGTGGCAACAGTGGCTGAGAAGACCAAAGAGCACTATAAAAAGCTTGAAGAAGCAGTAGGGACTAGCGAGTAAGCAGTAGTCCACACAAAAAAAAAGAAAGCAGGTAGCATGTCAGACACAAAGTACATGTAACACAANAANNNNNNN'
p22
aS'ATGGATGTATTCATGAAAGGACTTTCAAAGGNNNNGGANNNAGTNGTNGNTGCTNNTNNNAAAACCAAACAGGGTGGTGCAGAAGCAGCAGGAAAGACAAAAGTGGGTGTTCTCGATGTAGGCTCCAAAACCAAGGAGAGCTCTCTAGAGGGTCGCATCATGATATTAGTTAAAACTTGAATGCACGTGACTACTTGTAAAAAAACAATGATATCGTTAGTAACTACATTAGCAACAACAACGTCATATGGAGTCAGACGAATGACGGACAACAAGAGCTTTTCACACAANAANNNNNNN'
p23
aS'ATGGATGTATTCATGAAAGGACTTTCAAAGGNNNNGGANNNAGTNGGNGNTGCTNNTNNNAAAACCAAACAGGGTGGGGCCGAAGCAGCAGGAAAGACAAAAGAGGGTGTTCTCTATGTAGGCTCCAAAACCAAGGAGGGCGTGGTGCATGGTGTGGCAACAGTGGCTGAGAGGAACAAAGAGCAAGCGAAAAAAGCGGGAGAAACAGTGGTGATGGGGGTGAGAGAAGGTGCGCAGAAGAAAATAGAGGGAACAGAGAGCCATGCAGCGGACAAGGGATCTGAAAAAAANGANNNNNNN'
p24
aS'ATGGATGTATTCATGAAAGGACTCTCAAAGGNNNNGGCNNNAGTNGTNGNTGCTNNTNNNAAAACCAAACAGGGTGTGGCATAAGCAGCAGGAAAGACAAAAGAGGGAGTTCTCTATGTAGGCTCCAAAACCAAGGAGAGCTCTCTAGAGGGCCGCATCATGTAATTAGTTAAATCTCGTATACCGTCTTCTGCTTGAAAAAAAAAAAGTCAAGAGAGTTATCAACTTATAAAATCTCAAATAGAAACTACAACCTTCAACAAGACATAGTAACAATAAAGACCATACAANACNNNNNNN'
p25
a.