(lp0
(lp1
I32
aI34
aI33
aI11
aI33
aI34
aI37
aI37
aI37
aI34
aI37
aI37
aI37
aI38
aI38
aI38
aI38
aI38
aI2
aI24
aI24
aI35
aI37
aI37
aI24
aI11
aI34
aI37
aI37
aI37
aI38
aI2
aI2
aI2
aI2
aI25
aI25
aI27
aI2
aI2
aI2
aI25
aI25
aI25
aI2
aI25
aI34
aI2
aI25
aI2
aI25
aI25
aI35
aI37
aI2
aI2
aI25
aI2
aI2
aI2
aI25
aI11
aI25
aI32
aI34
aI23
aI24
aI37
aI36
aI36
aI37
aI34
aI38
aI38
aI38
aI36
aI34
aI36
aI37
aI35
aI37
aI33
aI35
aI37
aI38
aI38
aI38
aI38
aI38
aI38
aI38
aI31
aI37
aI38
aI38
aI37
aI37
aI38
aI37
aI38
aI31
aI37
aI37
aI38
aI38
aI23
aI11
aI11
aI31
aI28
aI10
aI31
aI10
aI11
aI23
aI10
aI23
aI10
aI10
aI23
aI19
aI25
aI10
aI11
aI25
aI33
aI27
aI20
aI34
aI37
aI11
aI23
aI33
aI37
aI33
aI22
aI37
aI36
aI28
aI34
aI31
aI36
aI10
aI31
aI33
aI11
aI29
aI10
aI10
aI29
aI34
aI27
aI11
aI34
aI29
aI34
aI33
aI11
aI27
aI35
aI29
aI11
aI10
aI23
aI18
aI18
aI27
aI29
aI22
aI35
aI34
aI38
aI38
aI38
aI31
aI11
aI31
aI37
aI37
aI38
aI37
aI37
aI11
aI9
aI9
aI25
aI9
aI26
aI9
aI29
aI11
aI29
aI27
aI11
aI23
aI20
aI9
aI27
aI9
aI27
aI9
aI19
aI11
aI9
aI10
aI10
aI18
aI27
aI10
aI30
aI30
aI29
aI26
aI18
aI29
aI10
aI11
aI22
aI19
aI10
aI26
aI20
aI17
aI16
aI9
aI9
aI10
aI8
aI9
aI9
aI8
aI8
aI9
aI17
aI14
aI9
aI7
aI14
aI16
aI12
aI18
aI32
aI24
aI27
aI8
aI14
aI9
aI12
aI9
aI14
aI9
aI8
aI17
aI21
aI10
aI10
aI11
aI11
aI13
aI14
aI9
aI17
aI10
aI9
aI10
aI9
aI10
aI16
aI10
aI9
aI14
aI24
aI10
aI17
aI34
aI8
aI11
aI11
aI8
aI8
aI8
aI7
aI9
aI14
aI15
aI14
aI9
aI9
aI2
aI14
aI2
aI2
aI9
aI2
aI2
aI2
aI2
aI2
aI2
aI2
aa(lp2
I34
aI34
aI34
aI34
aI34
aI38
aI38
aI38
aI38
aI38
aI38
aI37
aI38
aI38
aI38
aI38
aI38
aI36
aI2
aI28
aI33
aI37
aI38
aI38
aI38
aI38
aI38
aI38
aI31
aI34
aI36
aI2
aI2
aI2
aI2
aI25
aI25
aI34
aI2
aI2
aI2
aI25
aI25
aI34
aI2
aI24
aI25
aI2
aI25
aI2
aI25
aI34
aI37
aI27
aI2
aI2
aI24
aI2
aI2
aI2
aI25
aI25
aI35
aI37
aI27
aI33
aI37
aI38
aI38
aI38
aI38
aI38
aI38
aI35
aI38
aI38
aI38
aI38
aI35
aI11
aI25
aI24
aI36
aI21
aI11
aI11
aI21
aI30
aI23
aI11
aI34
aI31
aI36
aI37
aI31
aI11
aI11
aI23
aI34
aI34
aI36
aI11
aI11
aI19
aI11
aI11
aI11
aI36
aI10
aI34
aI10
aI11
aI11
aI11
aI25
aI11
aI11
aI11
aI11
aI11
aI24
aI33
aI32
aI20
aI24
aI10
aI25
aI33
aI33
aI11
aI24
aI11
aI11
aI19
aI32
aI10
aI11
aI10
aI23
aI10
aI19
aI21
aI19
aI11
aI23
aI31
aI31
aI35
aI33
aI11
aI11
aI32
aI30
aI11
aI25
aI10
aI10
aI18
aI33
aI18
aI29
aI35
aI31
aI11
aI11
aI18
aI22
aI29
aI11
aI31
aI23
aI37
aI11
aI10
aI18
aI11
aI18
aI27
aI37
aI27
aI26
aI26
aI19
aI10
aI31
aI35
aI11
aI10
aI11
aI23
aI11
aI11
aI23
aI11
aI9
aI31
aI9
aI20
aI9
aI11
aI11
aI11
aI11
aI10
aI11
aI11
aI20
aI33
aI11
aI17
aI31
aI9
aI11
aI11
aI20
aI31
aI37
aI22
aI11
aI10
aI28
aI14
aI28
aI30
aI11
aI17
aI16
aI19
aI9
aI9
aI15
aI9
aI16
aI11
aI11
aI19
aI29
aI31
aI18
aI7
aI16
aI18
aI27
aI34
aI32
aI38
aI36
aI7
aI9
aI23
aI27
aI17
aI37
aI19
aI37
aI10
aI17
aI11
aI8
aI10
aI10
aI10
aI16
aI10
aI17
aI9
aI15
aI9
aI10
aI9
aI16
aI18
aI10
aI15
aI27
aI8
aI17
aI11
aI8
aI7
aI13
aI8
aI9
aI9
aI9
aI15
aI9
aI9
aI2
aI9
aI2
aI2
aI17
aI2
aI2
aI2
aI2
aI2
aI2
aI2
aa(lp3
I34
aI34
aI34
aI34
aI34
aI38
aI38
aI38
aI38
aI37
aI38
aI37
aI37
aI37
aI32
aI37
aI34
aI38
aI38
aI38
aI38
aI38
aI38
aI38
aI34
aI37
aI38
aI35
aI34
aI34
aI38
aI2
aI2
aI2
aI2
aI24
aI25
aI35
aI2
aI2
aI2
aI21
aI25
aI34
aI2
aI25
aI34
aI2
aI25
aI2
aI25
aI21
aI21
aI34
aI2
aI2
aI25
aI2
aI2
aI2
aI25
aI25
aI31
aI37
aI37
aI38
aI38
aI37
aI37
aI31
aI36
aI36
aI35
aI35
aI31
aI37
aI38
aI38
aI38
aI38
aI38
aI38
aI37
aI36
aI37
aI24
aI36
aI27
aI37
aI30
aI37
aI38
aI38
aI38
aI38
aI38
aI38
aI38
aI34
aI37
aI38
aI34
aI36
aI33
aI37
aI34
aI27
aI37
aI38
aI37
aI38
aI37
aI38
aI37
aI38
aI38
aI34
aI37
aI37
aI37
aI35
aI36
aI36
aI37
aI34
aI34
aI37
aI34
aI27
aI37
aI38
aI24
aI36
aI36
aI38
aI37
aI35
aI34
aI22
aI34
aI10
aI31
aI36
aI37
aI11
aI10
aI23
aI28
aI37
aI38
aI38
aI37
aI37
aI37
aI32
aI36
aI37
aI37
aI38
aI31
aI37
aI23
aI33
aI28
aI33
aI34
aI11
aI36
aI27
aI35
aI28
aI11
aI18
aI26
aI11
aI29
aI35
aI37
aI38
aI29
aI37
aI33
aI29
aI22
aI11
aI21
aI18
aI10
aI31
aI11
aI20
aI31
aI27
aI36
aI22
aI36
aI35
aI37
aI11
aI31
aI11
aI22
aI31
aI9
aI25
aI33
aI11
aI11
aI11
aI11
aI11
aI8
aI9
aI9
aI9
aI9
aI9
aI21
aI19
aI9
aI19
aI19
aI30
aI10
aI9
aI8
aI16
aI8
aI14
aI9
aI10
aI17
aI10
aI22
aI22
aI30
aI8
aI30
aI34
aI7
aI9
aI14
aI19
aI23
aI20
aI11
aI11
aI8
aI22
aI23
aI30
aI27
aI30
aI27
aI10
aI9
aI17
aI25
aI16
aI27
aI8
aI9
aI10
aI9
aI15
aI24
aI10
aI14
aI15
aI17
aI15
aI23
aI9
aI24
aI16
aI20
aI34
aI22
aI8
aI12
aI8
aI13
aI9
aI9
aI25
aI15
aI9
aI9
aI2
aI9
aI2
aI16
aI14
aI2
aI2
aI2
aI2
aI2
aI2
aI2
aa(lp4
I34
aI34
aI34
aI34
aI34
aI37
aI38
aI38
aI38
aI38
aI38
aI38
aI38
aI38
aI38
aI38
aI38
aI38
aI38
aI38
aI37
aI36
aI38
aI38
aI37
aI37
aI38
aI38
aI38
aI38
aI37
aI2
aI2
aI2
aI2
aI25
aI25
aI34
aI2
aI2
aI2
aI25
aI25
aI34
aI2
aI11
aI25
aI2
aI25
aI2
aI21
aI25
aI35
aI37
aI2
aI2
aI25
aI2
aI2
aI2
aI25
aI25
aI35
aI37
aI37
aI34
aI37
aI37
aI38
aI38
aI38
aI38
aI34
aI38
aI38
aI35
aI37
aI36
aI36
aI36
aI37
aI38
aI22
aI37
aI38
aI38
aI25
aI11
aI11
aI11
aI11
aI34
aI21
aI34
aI27
aI37
aI29
aI37
aI11
aI25
aI37
aI31
aI11
aI10
aI11
aI11
aI20
aI20
aI27
aI11
aI30
aI30
aI31
aI32
aI11
aI24
aI32
aI11
aI11
aI11
aI20
aI11
aI24
aI10
aI10
aI21
aI10
aI23
aI10
aI24
aI25
aI20
aI11
aI11
aI11
aI20
aI11
aI23
aI23
aI31
aI10
aI10
aI10
aI25
aI34
aI36
aI37
aI10
aI31
aI23
aI10
aI11
aI18
aI23
aI25
aI11
aI11
aI11
aI18
aI11
aI27
aI29
aI11
aI11
aI11
aI25
aI18
aI11
aI27
aI19
aI11
aI18
aI22
aI15
aI33
aI27
aI34
aI11
aI23
aI23
aI11
aI18
aI11
aI18
aI23
aI9
aI16
aI9
aI11
aI11
aI11
aI30
aI27
aI11
aI19
aI9
aI9
aI21
aI11
aI11
aI16
aI11
aI11
aI8
aI9
aI16
aI23
aI9
aI9
aI9
aI11
aI8
aI10
aI9
aI9
aI9
aI9
aI9
aI18
aI10
aI17
aI9
aI18
aI17
aI16
aI17
aI26
aI25
aI9
aI9
aI8
aI9
aI10
aI10
aI9
aI17
aI19
aI34
aI36
aI7
aI27
aI10
aI18
aI10
aI14
aI11
aI11
aI8
aI10
aI11
aI11
aI7
aI10
aI13
aI27
aI10
aI11
aI11
aI13
aI15
aI9
aI17
aI10
aI9
aI10
aI14
aI9
aI9
aI18
aI9
aI9
aI18
aI18
aI9
aI9
aI11
aI18
aI11
aI7
aI21
aI8
aI8
aI9
aI9
aI9
aI9
aI15
aI16
aI2
aI9
aI2
aI2
aI14
aI2
aI2
aI2
aI2
aI2
aI2
aI2
aa(lp5
I31
aI34
aI34
aI34
aI34
aI37
aI38
aI38
aI38
aI35
aI32
aI27
aI37
aI37
aI38
aI35
aI38
aI37
aI38
aI38
aI38
aI32
aI36
aI24
aI37
aI24
aI24
aI37
aI36
aI37
aI35
aI2
aI2
aI2
aI2
aI24
aI25
aI11
aI2
aI2
aI2
aI24
aI25
aI34
aI2
aI25
aI34
aI2
aI25
aI2
aI25
aI34
aI35
aI35
aI2
aI2
aI25
aI2
aI2
aI2
aI25
aI25
aI33
aI27
aI25
aI27
aI37
aI34
aI33
aI35
aI38
aI38
aI38
aI34
aI25
aI33
aI31
aI31
aI34
aI38
aI38
aI38
aI36
aI36
aI31
aI37
aI37
aI32
aI34
aI34
aI11
aI27
aI30
aI34
aI11
aI32
aI11
aI11
aI24
aI11
aI11
aI36
aI11
aI34
aI34
aI27
aI11
aI36
aI38
aI38
aI34
aI37
aI36
aI23
aI37
aI23
aI30
aI37
aI38
aI23
aI22
aI33
aI37
aI36
aI38
aI35
aI35
aI32
aI36
aI11
aI33
aI34
aI11
aI27
aI11
aI11
aI11
aI24
aI34
aI34
aI37
aI37
aI36
aI37
aI11
aI11
aI24
aI19
aI11
aI24
aI36
aI32
aI30
aI19
aI10
aI19
aI10
aI23
aI28
aI30
aI31
aI29
aI33
aI36
aI28
aI10
aI10
aI22
aI30
aI11
aI22
aI21
aI11
aI21
aI11
aI11
aI18
aI34
aI11
aI10
aI10
aI27
aI31
aI31
aI10
aI25
aI23
aI26
aI31
aI9
aI11
aI9
aI9
aI20
aI9
aI9
aI17
aI11
aI11
aI11
aI25
aI11
aI11
aI9
aI11
aI11
aI20
aI11
aI11
aI19
aI9
aI7
aI19
aI9
aI16
aI21
aI30
aI37
aI9
aI22
aI24
aI9
aI10
aI17
aI20
aI10
aI17
aI8
aI9
aI16
aI15
aI8
aI9
aI10
aI30
aI23
aI8
aI22
aI17
aI8
aI17
aI15
aI9
aI9
aI14
aI11
aI11
aI8
aI15
aI18
aI17
aI7
aI9
aI12
aI9
aI14
aI9
aI16
aI8
aI9
aI9
aI9
aI10
aI9
aI10
aI9
aI10
aI14
aI10
aI9
aI8
aI14
aI9
aI9
aI17
aI7
aI15
aI18
aI8
aI12
aI7
aI7
aI8
aI8
aI15
aI17
aI9
aI9
aI2
aI16
aI2
aI2
aI9
aI2
aI2
aI2
aI2
aI2
aI2
aI2
aa(lp6
I34
aI34
aI34
aI34
aI31
aI27
aI37
aI37
aI37
aI38
aI37
aI38
aI38
aI38
aI37
aI38
aI38
aI38
aI37
aI36
aI33
aI11
aI34
aI34
aI37
aI11
aI11
aI34
aI36
aI37
aI37
aI2
aI2
aI2
aI2
aI25
aI11
aI11
aI2
aI2
aI2
aI25
aI21
aI34
aI2
aI21
aI34
aI2
aI25
aI2
aI25
aI34
aI11
aI11
aI2
aI2
aI24
aI2
aI2
aI2
aI25
aI11
aI25
aI25
aI34
aI34
aI37
aI11
aI34
aI11
aI34
aI36
aI37
aI31
aI27
aI21
aI31
aI23
aI21
aI21
aI36
aI37
aI11
aI34
aI36
aI36
aI38
aI38
aI36
aI37
aI23
aI27
aI25
aI31
aI11
aI11
aI11
aI24
aI34
aI27
aI36
aI37
aI35
aI37
aI34
aI38
aI38
aI11
aI11
aI10
aI33
aI30
aI11
aI32
aI32
aI37
aI11
aI34
aI37
aI28
aI33
aI34
aI11
aI11
aI33
aI37
aI37
aI31
aI37
aI37
aI25
aI30
aI10
aI33
aI37
aI10
aI19
aI31
aI34
aI22
aI30
aI36
aI10
aI27
aI28
aI37
aI37
aI37
aI11
aI22
aI32
aI27
aI11
aI23
aI29
aI18
aI28
aI11
aI11
aI23
aI18
aI31
aI18
aI21
aI33
aI23
aI34
aI35
aI34
aI35
aI27
aI11
aI18
aI10
aI31
aI11
aI31
aI34
aI11
aI31
aI16
aI9
aI31
aI22
aI34
aI9
aI9
aI20
aI11
aI11
aI22
aI31
aI25
aI34
aI27
aI16
aI11
aI11
aI9
aI16
aI9
aI19
aI9
aI8
aI14
aI23
aI25
aI9
aI9
aI17
aI9
aI12
aI25
aI9
aI25
aI23
aI23
aI23
aI17
aI22
aI16
aI9
aI27
aI25
aI10
aI15
aI20
aI29
aI23
aI15
aI28
aI22
aI34
aI10
aI10
aI10
aI7
aI18
aI9
aI8
aI10
aI18
aI10
aI10
aI16
aI17
aI11
aI12
aI9
aI17
aI14
aI7
aI9
aI11
aI17
aI9
aI17
aI11
aI7
aI24
aI14
aI22
aI10
aI9
aI15
aI8
aI9
aI15
aI9
aI14
aI13
aI14
aI27
aI9
aI25
aI7
aI25
aI9
aI7
aI7
aI7
aI7
aI8
aI9
aI15
aI9
aI17
aI9
aI2
aI14
aI2
aI9
aI16
aI2
aI2
aI2
aI2
aI2
aI2
aI2
aa(lp7
I34
aI34
aI34
aI34
aI34
aI36
aI37
aI37
aI37
aI34
aI11
aI27
aI37
aI37
aI36
aI32
aI36
aI36
aI36
aI37
aI37
aI38
aI38
aI38
aI38
aI38
aI38
aI22
aI31
aI37
aI34
aI2
aI2
aI2
aI2
aI25
aI25
aI34
aI2
aI2
aI2
aI11
aI25
aI34
aI2
aI11
aI25
aI2
aI25
aI2
aI25
aI34
aI34
aI24
aI2
aI2
aI25
aI2
aI2
aI2
aI25
aI25
aI31
aI11
aI25
aI34
aI35
aI36
aI36
aI37
aI11
aI21
aI34
aI37
aI35
aI34
aI34
aI37
aI37
aI38
aI38
aI38
aI38
aI36
aI11
aI32
aI35
aI37
aI38
aI24
aI27
aI36
aI24
aI30
aI24
aI19
aI37
aI37
aI37
aI34
aI34
aI11
aI19
aI31
aI36
aI11
aI34
aI37
aI37
aI37
aI34
aI36
aI33
aI37
aI11
aI34
aI32
aI37
aI32
aI32
aI27
aI22
aI27
aI27
aI28
aI11
aI25
aI33
aI27
aI11
aI34
aI27
aI20
aI36
aI37
aI35
aI37
aI24
aI11
aI34
aI32
aI11
aI32
aI32
aI25
aI31
aI11
aI31
aI37
aI38
aI11
aI30
aI11
aI29
aI10
aI34
aI11
aI19
aI33
aI23
aI23
aI23
aI11
aI34
aI11
aI11
aI11
aI31
aI11
aI31
aI36
aI27
aI32
aI35
aI18
aI11
aI21
aI11
aI28
aI23
aI32
aI30
aI29
aI28
aI23
aI31
aI11
aI21
aI10
aI10
aI21
aI29
aI10
aI18
aI22
aI28
aI29
aI11
aI10
aI29
aI22
aI37
aI34
aI20
aI35
aI36
aI34
aI21
aI24
aI11
aI11
aI8
aI20
aI31
aI35
aI31
aI11
aI11
aI16
aI9
aI26
aI26
aI11
aI24
aI9
aI9
aI9
aI9
aI26
aI9
aI8
aI16
aI16
aI9
aI28
aI24
aI9
aI30
aI33
aI15
aI11
aI20
aI11
aI11
aI10
aI18
aI29
aI22
aI11
aI11
aI11
aI7
aI10
aI11
aI9
aI20
aI37
aI30
aI7
aI20
aI23
aI17
aI32
aI19
aI10
aI8
aI15
aI14
aI32
aI22
aI8
aI27
aI9
aI29
aI34
aI8
aI11
aI27
aI7
aI13
aI7
aI13
aI8
aI8
aI9
aI9
aI17
aI17
aI2
aI14
aI2
aI2
aI9
aI2
aI2
aI2
aI2
aI2
aI2
aI2
aa(lp8
I34
aI34
aI34
aI34
aI34
aI38
aI38
aI38
aI34
aI37
aI38
aI38
aI38
aI38
aI38
aI38
aI38
aI11
aI36
aI11
aI33
aI37
aI38
aI11
aI31
aI25
aI37
aI36
aI38
aI38
aI38
aI2
aI2
aI2
aI2
aI25
aI11
aI34
aI2
aI2
aI2
aI21
aI11
aI21
aI2
aI25
aI21
aI2
aI25
aI2
aI25
aI24
aI27
aI37
aI2
aI2
aI25
aI2
aI2
aI2
aI25
aI25
aI24
aI32
aI31
aI22
aI37
aI22
aI31
aI31
aI37
aI23
aI37
aI11
aI31
aI34
aI37
aI37
aI36
aI37
aI38
aI24
aI11
aI24
aI11
aI24
aI25
aI20
aI34
aI11
aI11
aI34
aI11
aI11
aI22
aI19
aI31
aI37
aI37
aI38
aI36
aI22
aI30
aI11
aI10
aI33
aI11
aI27
aI27
aI11
aI30
aI34
aI20
aI36
aI36
aI24
aI25
aI28
aI36
aI11
aI33
aI10
aI11
aI24
aI33
aI36
aI11
aI11
aI24
aI31
aI23
aI31
aI11
aI11
aI25
aI11
aI32
aI11
aI31
aI28
aI29
aI22
aI29
aI10
aI37
aI36
aI31
aI10
aI29
aI11
aI10
aI18
aI23
aI23
aI34
aI22
aI10
aI31
aI11
aI25
aI11
aI11
aI23
aI31
aI22
aI29
aI37
aI38
aI36
aI31
aI22
aI11
aI22
aI33
aI11
aI22
aI35
aI34
aI37
aI34
aI11
aI30
aI11
aI10
aI11
aI11
aI11
aI9
aI19
aI9
aI9
aI19
aI16
aI28
aI11
aI16
aI22
aI22
aI30
aI37
aI22
aI34
aI9
aI15
aI26
aI17
aI10
aI10
aI17
aI17
aI9
aI11
aI14
aI9
aI18
aI10
aI17
aI9
aI9
aI9
aI17
aI15
aI27
aI27
aI10
aI9
aI9
aI8
aI20
aI10
aI9
aI17
aI10
aI17
aI22
aI27
aI8
aI10
aI27
aI17
aI27
aI10
aI10
aI10
aI9
aI18
aI11
aI13
aI10
aI11
aI15
aI8
aI10
aI8
aI15
aI10
aI15
aI11
aI18
aI8
aI15
aI17
aI15
aI9
aI10
aI9
aI10
aI16
aI10
aI17
aI24
aI34
aI10
aI9
aI25
aI27
aI23
aI14
aI8
aI8
aI8
aI7
aI8
aI8
aI16
aI14
aI9
aI16
aI2
aI14
aI2
aI9
aI9
aI2
aI2
aI2
aI2
aI2
aI2
aI2
aa(lp9
I34
aI34
aI34
aI34
aI34
aI38
aI38
aI38
aI38
aI37
aI37
aI38
aI38
aI38
aI38
aI38
aI37
aI38
aI38
aI38
aI38
aI38
aI38
aI38
aI27
aI37
aI38
aI38
aI35
aI38
aI38
aI2
aI2
aI2
aI2
aI25
aI25
aI34
aI2
aI2
aI2
aI25
aI25
aI34
aI2
aI11
aI25
aI2
aI25
aI2
aI25
aI25
aI35
aI23
aI2
aI2
aI24
aI2
aI2
aI2
aI25
aI25
aI35
aI37
aI37
aI38
aI38
aI38
aI38
aI38
aI38
aI38
aI11
aI33
aI25
aI34
aI37
aI34
aI37
aI38
aI38
aI38
aI37
aI38
aI37
aI36
aI37
aI36
aI27
aI37
aI38
aI37
aI35
aI38
aI38
aI38
aI38
aI38
aI38
aI38
aI37
aI38
aI38
aI38
aI34
aI36
aI11
aI11
aI11
aI25
aI11
aI24
aI20
aI25
aI11
aI11
aI31
aI25
aI37
aI34
aI10
aI28
aI10
aI19
aI27
aI27
aI24
aI11
aI24
aI36
aI11
aI11
aI27
aI11
aI11
aI11
aI24
aI11
aI11
aI11
aI11
aI10
aI10
aI23
aI10
aI19
aI11
aI31
aI11
aI21
aI28
aI10
aI10
aI11
aI10
aI11
aI11
aI21
aI20
aI27
aI20
aI11
aI11
aI23
aI11
aI18
aI11
aI10
aI25
aI34
aI27
aI34
aI31
aI26
aI31
aI11
aI11
aI23
aI18
aI31
aI24
aI10
aI11
aI15
aI29
aI11
aI11
aI17
aI11
aI22
aI17
aI18
aI29
aI18
aI11
aI17
aI17
aI11
aI31
aI11
aI16
aI25
aI11
aI14
aI11
aI30
aI21
aI21
aI11
aI9
aI11
aI7
aI19
aI20
aI11
aI11
aI11
aI11
aI11
aI17
aI21
aI19
aI17
aI9
aI18
aI15
aI14
aI23
aI26
aI9
aI17
aI9
aI19
aI10
aI19
aI16
aI7
aI9
aI17
aI8
aI17
aI9
aI9
aI9
aI8
aI11
aI11
aI8
aI22
aI27
aI11
aI8
aI10
aI8
aI18
aI9
aI9
aI23
aI7
aI8
aI15
aI9
aI10
aI9
aI18
aI9
aI10
aI9
aI15
aI9
aI14
aI9
aI14
aI24
aI9
aI11
aI11
aI18
aI8
aI8
aI8
aI8
aI8
aI8
aI24
aI9
aI14
aI9
aI2
aI16
aI2
aI9
aI9
aI2
aI2
aI2
aI2
aI2
aI2
aI2
aa(lp10
I32
aI33
aI27
aI33
aI34
aI38
aI38
aI37
aI38
aI38
aI38
aI38
aI38
aI36
aI38
aI38
aI38
aI34
aI36
aI37
aI32
aI37
aI34
aI24
aI21
aI34
aI31
aI26
aI37
aI38
aI36
aI2
aI2
aI2
aI2
aI25
aI25
aI35
aI2
aI2
aI2
aI11
aI25
aI25
aI2
aI25
aI34
aI2
aI25
aI2
aI25
aI34
aI34
aI34
aI2
aI2
aI25
aI2
aI2
aI2
aI25
aI25
aI33
aI37
aI37
aI12
aI34
aI21
aI34
aI34
aI36
aI37
aI31
aI25
aI10
aI31
aI33
aI10
aI37
aI37
aI38
aI38
aI38
aI38
aI38
aI37
aI38
aI23
aI27
aI34
aI36
aI37
aI38
aI38
aI24
aI37
aI37
aI38
aI27
aI23
aI27
aI28
aI35
aI37
aI37
aI33
aI37
aI36
aI37
aI38
aI32
aI37
aI34
aI37
aI11
aI32
aI33
aI34
aI37
aI36
aI23
aI37
aI10
aI28
aI25
aI32
aI36
aI28
aI27
aI27
aI37
aI22
aI33
aI36
aI36
aI37
aI10
aI10
aI10
aI10
aI21
aI10
aI10
aI34
aI23
aI35
aI34
aI36
aI37
aI10
aI25
aI25
aI9
aI18
aI31
aI23
aI18
aI31
aI37
aI37
aI38
aI37
aI11
aI35
aI25
aI27
aI35
aI11
aI22
aI11
aI29
aI27
aI9
aI26
aI37
aI36
aI37
aI36
aI38
aI31
aI9
aI17
aI16
aI24
aI22
aI23
aI23
aI18
aI9
aI9
aI9
aI9
aI16
aI9
aI10
aI18
aI17
aI17
aI24
aI36
aI20
aI9
aI9
aI8
aI30
aI9
aI9
aI16
aI23
aI9
aI10
aI7
aI17
aI27
aI10
aI10
aI17
aI18
aI10
aI9
aI15
aI9
aI18
aI22
aI21
aI9
aI17
aI27
aI20
aI8
aI22
aI34
aI9
aI14
aI17
aI9
aI7
aI17
aI9
aI7
aI18
aI27
aI9
aI26
aI23
aI9
aI17
aI7
aI9
aI14
aI14
aI7
aI14
aI11
aI9
aI10
aI11
aI9
aI7
aI15
aI8
aI8
aI9
aI9
aI9
aI8
aI17
aI15
aI25
aI22
aI13
aI9
aI9
aI24
aI9
aI7
aI11
aI18
aI7
aI7
aI7
aI8
aI13
aI8
aI16
aI9
aI16
aI15
aI2
aI14
aI2
aI9
aI17
aI2
aI2
aI2
aI2
aI2
aI2
aI2
aa(lp11
I34
aI34
aI34
aI34
aI34
aI24
aI37
aI37
aI37
aI34
aI36
aI32
aI36
aI37
aI38
aI38
aI38
aI38
aI38
aI38
aI38
aI37
aI35
aI38
aI37
aI37
aI37
aI36
aI38
aI38
aI37
aI2
aI2
aI2
aI2
aI21
aI24
aI31
aI2
aI2
aI2
aI25
aI25
aI24
aI2
aI25
aI34
aI2
aI25
aI2
aI25
aI25
aI27
aI37
aI2
aI2
aI25
aI2
aI2
aI2
aI25
aI25
aI33
aI33
aI34
aI12
aI34
aI35
aI37
aI38
aI38
aI38
aI23
aI31
aI34
aI36
aI10
aI34
aI31
aI27
aI27
aI37
aI38
aI38
aI38
aI38
aI37
aI34
aI36
aI37
aI34
aI38
aI37
aI38
aI38
aI38
aI38
aI38
aI38
aI38
aI38
aI38
aI38
aI28
aI33
aI25
aI11
aI20
aI27
aI11
aI27
aI37
aI37
aI24
aI11
aI11
aI31
aI25
aI11
aI30
aI23
aI27
aI11
aI20
aI36
aI27
aI37
aI35
aI27
aI11
aI11
aI11
aI27
aI20
aI11
aI20
aI34
aI28
aI36
aI28
aI28
aI28
aI20
aI31
aI10
aI21
aI31
aI36
aI37
aI11
aI23
aI20
aI11
aI11
aI25
aI11
aI20
aI21
aI11
aI11
aI34
aI11
aI11
aI11
aI34
aI24
aI11
aI31
aI11
aI31
aI32
aI35
aI36
aI10
aI11
aI23
aI11
aI25
aI11
aI18
aI21
aI9
aI11
aI21
aI10
aI10
aI10
aI10
aI11
aI23
aI20
aI11
aI11
aI23
aI10
aI11
aI22
aI11
aI9
aI9
aI9
aI11
aI21
aI20
aI11
aI11
aI20
aI11
aI11
aI11
aI11
aI15
aI11
aI20
aI19
aI9
aI9
aI9
aI9
aI18
aI10
aI20
aI11
aI28
aI11
aI10
aI26
aI14
aI9
aI25
aI30
aI8
aI17
aI18
aI11
aI11
aI7
aI18
aI19
aI7
aI19
aI20
aI11
aI10
aI15
aI19
aI16
aI11
aI9
aI9
aI9
aI11
aI9
aI13
aI9
aI9
aI9
aI11
aI8
aI14
aI9
aI17
aI10
aI9
aI10
aI14
aI17
aI9
aI27
aI9
aI9
aI10
aI18
aI17
aI10
aI13
aI27
aI11
aI13
aI8
aI8
aI8
aI8
aI8
aI9
aI14
aI9
aI16
aI2
aI9
aI2
aI9
aI9
aI2
aI2
aI2
aI2
aI2
aI2
aI2
aa(lp12
I34
aI34
aI34
aI34
aI34
aI38
aI38
aI38
aI38
aI38
aI38
aI38
aI38
aI38
aI38
aI38
aI38
aI37
aI38
aI38
aI38
aI38
aI34
aI34
aI27
aI36
aI36
aI36
aI34
aI24
aI31
aI2
aI2
aI2
aI2
aI25
aI11
aI25
aI2
aI2
aI2
aI21
aI24
aI34
aI2
aI25
aI24
aI2
aI25
aI2
aI25
aI34
aI37
aI35
aI2
aI2
aI25
aI2
aI2
aI2
aI25
aI11
aI25
aI35
aI37
aI38
aI38
aI38
aI38
aI38
aI37
aI38
aI38
aI38
aI38
aI38
aI22
aI37
aI36
aI37
aI31
aI34
aI38
aI38
aI38
aI34
aI38
aI38
aI30
aI36
aI37
aI37
aI38
aI37
aI28
aI37
aI37
aI38
aI38
aI38
aI38
aI23
aI11
aI19
aI24
aI23
aI25
aI22
aI34
aI19
aI33
aI11
aI34
aI11
aI37
aI37
aI27
aI36
aI37
aI37
aI11
aI27
aI30
aI30
aI19
aI28
aI33
aI35
aI38
aI38
aI27
aI37
aI37
aI35
aI11
aI27
aI27
aI36
aI22
aI22
aI31
aI36
aI38
aI38
aI10
aI21
aI19
aI36
aI37
aI24
aI36
aI31
aI33
aI37
aI36
aI23
aI25
aI22
aI37
aI37
aI11
aI29
aI25
aI36
aI37
aI38
aI22
aI11
aI10
aI21
aI11
aI29
aI18
aI28
aI35
aI37
aI31
aI37
aI36
aI37
aI34
aI34
aI21
aI24
aI18
aI11
aI11
aI15
aI11
aI31
aI25
aI31
aI11
aI11
aI11
aI19
aI11
aI11
aI11
aI18
aI11
aI11
aI11
aI9
aI21
aI19
aI31
aI25
aI11
aI11
aI31
aI9
aI11
aI11
aI20
aI11
aI27
aI11
aI27
aI10
aI10
aI10
aI17
aI20
aI11
aI17
aI26
aI19
aI11
aI9
aI9
aI14
aI9
aI19
aI9
aI9
aI7
aI11
aI11
aI8
aI21
aI27
aI11
aI26
aI10
aI11
aI17
aI13
aI22
aI11
aI23
aI7
aI17
aI14
aI25
aI9
aI9
aI11
aI7
aI17
aI26
aI25
aI22
aI22
aI10
aI10
aI10
aI10
aI10
aI10
aI10
aI17
aI11
aI26
aI9
aI11
aI17
aI11
aI7
aI7
aI11
aI8
aI8
aI9
aI9
aI9
aI9
aI9
aI15
aI17
aI2
aI9
aI9
aI2
aI2
aI2
aI2
aI2
aI2
aI2
aa(lp13
I34
aI34
aI34
aI34
aI34
aI38
aI34
aI37
aI37
aI38
aI34
aI38
aI36
aI38
aI38
aI38
aI38
aI38
aI38
aI38
aI38
aI38
aI38
aI38
aI38
aI38
aI38
aI38
aI24
aI37
aI27
aI2
aI2
aI2
aI2
aI25
aI25
aI34
aI2
aI2
aI2
aI11
aI25
aI34
aI2
aI25
aI11
aI2
aI25
aI2
aI25
aI11
aI21
aI34
aI2
aI2
aI25
aI2
aI2
aI2
aI24
aI25
aI33
aI35
aI35
aI33
aI36
aI24
aI27
aI36
aI37
aI34
aI34
aI27
aI31
aI34
aI34
aI11
aI37
aI36
aI31
aI25
aI34
aI28
aI30
aI36
aI30
aI30
aI30
aI37
aI24
aI37
aI32
aI37
aI37
aI11
aI34
aI34
aI37
aI36
aI37
aI37
aI37
aI37
aI33
aI24
aI36
aI30
aI30
aI37
aI36
aI37
aI38
aI38
aI36
aI38
aI38
aI32
aI37
aI28
aI35
aI38
aI38
aI38
aI35
aI10
aI10
aI22
aI19
aI24
aI33
aI36
aI37
aI11
aI33
aI36
aI30
aI24
aI24
aI24
aI26
aI26
aI36
aI32
aI37
aI38
aI11
aI31
aI20
aI31
aI37
aI37
aI37
aI31
aI23
aI34
aI38
aI31
aI34
aI37
aI32
aI24
aI11
aI31
aI30
aI33
aI34
aI38
aI10
aI34
aI22
aI34
aI11
aI28
aI28
aI36
aI37
aI27
aI28
aI11
aI27
aI31
aI19
aI28
aI11
aI23
aI29
aI26
aI20
aI22
aI23
aI34
aI25
aI9
aI28
aI28
aI31
aI11
aI29
aI22
aI28
aI11
aI29
aI33
aI26
aI11
aI29
aI34
aI30
aI33
aI9
aI22
aI11
aI19
aI16
aI11
aI31
aI31
aI22
aI34
aI21
aI34
aI11
aI15
aI14
aI26
aI22
aI19
aI34
aI37
aI32
aI29
aI33
aI9
aI9
aI9
aI14
aI10
aI30
aI18
aI27
aI9
aI19
aI9
aI8
aI27
aI27
aI19
aI19
aI11
aI23
aI12
aI25
aI11
aI14
aI17
aI18
aI11
aI8
aI21
aI24
aI34
aI10
aI9
aI10
aI15
aI18
aI9
aI10
aI15
aI8
aI9
aI9
aI16
aI9
aI13
aI27
aI23
aI21
aI8
aI12
aI13
aI24
aI24
aI25
aI17
aI25
aI9
aI2
aI9
aI2
aI16
aI9
aI2
aI2
aI2
aI2
aI2
aI2
aI2
aa(lp14
I34
aI34
aI34
aI34
aI34
aI38
aI35
aI38
aI38
aI36
aI36
aI38
aI38
aI38
aI38
aI37
aI38
aI37
aI37
aI38
aI37
aI37
aI37
aI38
aI37
aI38
aI38
aI38
aI38
aI38
aI38
aI2
aI2
aI2
aI2
aI25
aI25
aI25
aI2
aI2
aI2
aI25
aI21
aI25
aI2
aI25
aI34
aI2
aI24
aI2
aI25
aI25
aI35
aI37
aI2
aI2
aI25
aI2
aI2
aI2
aI25
aI25
aI33
aI37
aI38
aI38
aI38
aI37
aI37
aI38
aI38
aI38
aI38
aI36
aI27
aI33
aI37
aI31
aI33
aI34
aI37
aI38
aI37
aI37
aI30
aI37
aI38
aI38
aI38
aI38
aI35
aI38
aI33
aI37
aI37
aI25
aI37
aI38
aI37
aI11
aI25
aI36
aI37
aI37
aI37
aI34
aI28
aI34
aI25
aI10
aI23
aI27
aI36
aI37
aI38
aI38
aI11
aI32
aI32
aI37
aI34
aI38
aI37
aI37
aI38
aI37
aI37
aI38
aI38
aI35
aI37
aI10
aI32
aI37
aI37
aI37
aI23
aI29
aI25
aI25
aI37
aI36
aI37
aI37
aI36
aI38
aI38
aI35
aI36
aI35
aI37
aI37
aI27
aI24
aI32
aI33
aI10
aI31
aI37
aI37
aI22
aI35
aI34
aI28
aI24
aI37
aI36
aI35
aI22
aI35
aI28
aI32
aI37
aI37
aI28
aI35
aI37
aI37
aI38
aI38
aI38
aI37
aI38
aI37
aI37
aI37
aI30
aI31
aI37
aI24
aI35
aI34
aI38
aI37
aI11
aI17
aI31
aI11
aI11
aI31
aI24
aI27
aI36
aI24
aI36
aI29
aI34
aI22
aI9
aI29
aI37
aI32
aI29
aI35
aI37
aI9
aI37
aI22
aI9
aI25
aI25
aI30
aI37
aI10
aI29
aI10
aI15
aI15
aI9
aI9
aI17
aI15
aI28
aI28
aI34
aI36
aI15
aI34
aI32
aI36
aI34
aI36
aI27
aI9
aI8
aI9
aI16
aI11
aI28
aI14
aI17
aI12
aI9
aI11
aI25
aI34
aI29
aI9
aI7
aI15
aI8
aI24
aI10
aI25
aI27
aI9
aI34
aI19
aI21
aI22
aI25
aI21
aI34
aI9
aI14
aI11
aI11
aI11
aI7
aI13
aI12
aI8
aI9
aI14
aI15
aI15
aI9
aI14
aI2
aI16
aI2
aI9
aI17
aI2
aI2
aI2
aI2
aI2
aI2
aI2
aa(lp15
I34
aI34
aI34
aI34
aI34
aI38
aI38
aI38
aI38
aI34
aI11
aI34
aI37
aI37
aI34
aI38
aI38
aI37
aI36
aI38
aI27
aI36
aI27
aI37
aI38
aI38
aI38
aI38
aI38
aI38
aI38
aI2
aI2
aI2
aI2
aI25
aI24
aI34
aI2
aI2
aI2
aI25
aI25
aI35
aI2
aI25
aI34
aI2
aI25
aI2
aI21
aI25
aI24
aI34
aI2
aI2
aI25
aI2
aI2
aI2
aI25
aI25
aI33
aI37
aI31
aI37
aI37
aI38
aI38
aI37
aI37
aI37
aI38
aI38
aI37
aI35
aI37
aI38
aI22
aI27
aI34
aI34
aI36
aI37
aI38
aI38
aI37
aI37
aI36
aI38
aI34
aI37
aI36
aI38
aI38
aI38
aI38
aI38
aI38
aI38
aI38
aI38
aI37
aI38
aI37
aI38
aI38
aI38
aI35
aI29
aI31
aI37
aI37
aI38
aI37
aI38
aI37
aI38
aI27
aI37
aI30
aI36
aI36
aI37
aI37
aI37
aI38
aI38
aI38
aI38
aI38
aI38
aI38
aI38
aI38
aI34
aI27
aI36
aI31
aI37
aI37
aI36
aI37
aI38
aI38
aI38
aI37
aI24
aI32
aI37
aI37
aI38
aI10
aI28
aI31
aI34
aI34
aI38
aI38
aI37
aI38
aI38
aI38
aI11
aI34
aI33
aI23
aI35
aI37
aI38
aI38
aI37
aI38
aI38
aI37
aI34
aI37
aI37
aI37
aI38
aI11
aI26
aI29
aI35
aI11
aI11
aI11
aI17
aI22
aI31
aI18
aI31
aI28
aI23
aI26
aI9
aI11
aI9
aI9
aI20
aI11
aI11
aI21
aI9
aI17
aI11
aI29
aI28
aI11
aI11
aI11
aI21
aI11
aI19
aI11
aI11
aI23
aI11
aI28
aI23
aI23
aI9
aI21
aI16
aI20
aI9
aI17
aI10
aI11
aI9
aI8
aI17
aI21
aI11
aI22
aI17
aI8
aI22
aI11
aI8
aI10
aI9
aI20
aI33
aI32
aI27
aI28
aI21
aI28
aI16
aI9
aI7
aI9
aI7
aI14
aI9
aI17
aI9
aI11
aI8
aI8
aI9
aI9
aI9
aI18
aI16
aI17
aI9
aI10
aI9
aI16
aI15
aI18
aI9
aI18
aI17
aI23
aI26
aI16
aI7
aI8
aI8
aI16
aI16
aI9
aI9
aI15
aI9
aI2
aI9
aI2
aI9
aI17
aI2
aI2
aI2
aI2
aI2
aI2
aI2
aa(lp16
I34
aI34
aI34
aI34
aI23
aI37
aI38
aI37
aI37
aI38
aI38
aI38
aI38
aI38
aI38
aI38
aI35
aI38
aI38
aI23
aI37
aI38
aI38
aI38
aI38
aI38
aI38
aI38
aI37
aI37
aI23
aI2
aI2
aI2
aI2
aI25
aI25
aI31
aI2
aI2
aI2
aI25
aI21
aI34
aI2
aI25
aI34
aI2
aI25
aI2
aI25
aI25
aI34
aI34
aI2
aI2
aI25
aI2
aI2
aI2
aI25
aI25
aI19
aI24
aI31
aI37
aI37
aI38
aI34
aI38
aI35
aI23
aI21
aI11
aI11
aI21
aI11
aI11
aI31
aI34
aI37
aI37
aI37
aI11
aI37
aI38
aI38
aI23
aI37
aI37
aI23
aI37
aI38
aI38
aI38
aI34
aI38
aI38
aI38
aI38
aI37
aI37
aI24
aI37
aI34
aI11
aI11
aI11
aI19
aI31
aI37
aI38
aI37
aI38
aI36
aI31
aI37
aI37
aI35
aI37
aI32
aI24
aI37
aI11
aI24
aI33
aI36
aI36
aI38
aI37
aI38
aI10
aI37
aI22
aI33
aI10
aI32
aI23
aI33
aI22
aI10
aI19
aI23
aI19
aI10
aI11
aI32
aI36
aI36
aI11
aI34
aI11
aI11
aI34
aI34
aI33
aI25
aI23
aI37
aI35
aI38
aI10
aI10
aI21
aI18
aI10
aI11
aI11
aI11
aI18
aI18
aI34
aI36
aI10
aI11
aI11
aI18
aI31
aI37
aI37
aI24
aI24
aI23
aI34
aI27
aI11
aI18
aI10
aI11
aI11
aI20
aI35
aI11
aI31
aI32
aI36
aI35
aI11
aI31
aI34
aI37
aI11
aI21
aI24
aI21
aI11
aI17
aI16
aI9
aI34
aI37
aI31
aI36
aI20
aI31
aI34
aI9
aI9
aI19
aI8
aI8
aI9
aI11
aI18
aI16
aI9
aI17
aI28
aI23
aI17
aI26
aI10
aI10
aI11
aI22
aI9
aI8
aI22
aI11
aI7
aI11
aI10
aI19
aI18
aI9
aI11
aI23
aI13
aI9
aI23
aI34
aI26
aI9
aI17
aI9
aI27
aI23
aI9
aI19
aI8
aI8
aI9
aI10
aI9
aI10
aI16
aI10
aI9
aI10
aI9
aI9
aI10
aI15
aI17
aI9
aI7
aI11
aI17
aI11
aI19
aI23
aI7
aI9
aI9
aI9
aI9
aI9
aI9
aI2
aI16
aI2
aI9
aI9
aI2
aI2
aI2
aI2
aI2
aI2
aI2
aa(lp17
I34
aI34
aI34
aI34
aI34
aI37
aI38
aI37
aI37
aI38
aI38
aI38
aI38
aI38
aI38
aI38
aI38
aI38
aI38
aI38
aI35
aI38
aI38
aI38
aI38
aI38
aI38
aI38
aI38
aI36
aI37
aI2
aI2
aI2
aI2
aI25
aI25
aI34
aI2
aI2
aI2
aI25
aI25
aI25
aI2
aI25
aI34
aI2
aI25
aI2
aI25
aI25
aI35
aI34
aI2
aI2
aI25
aI2
aI2
aI2
aI25
aI25
aI33
aI37
aI37
aI38
aI36
aI38
aI27
aI36
aI38
aI38
aI37
aI38
aI37
aI38
aI38
aI38
aI22
aI37
aI38
aI38
aI38
aI38
aI37
aI38
aI38
aI33
aI37
aI36
aI23
aI37
aI36
aI38
aI38
aI38
aI38
aI38
aI38
aI38
aI38
aI38
aI38
aI37
aI38
aI23
aI20
aI37
aI11
aI10
aI33
aI28
aI10
aI28
aI11
aI11
aI10
aI23
aI30
aI10
aI10
aI23
aI28
aI22
aI30
aI27
aI11
aI11
aI27
aI27
aI20
aI30
aI30
aI11
aI11
aI25
aI11
aI34
aI37
aI11
aI11
aI34
aI36
aI34
aI10
aI29
aI31
aI33
aI33
aI37
aI38
aI25
aI25
aI11
aI32
aI34
aI11
aI29
aI30
aI11
aI11
aI11
aI11
aI21
aI34
aI18
aI11
aI29
aI20
aI31
aI25
aI25
aI37
aI34
aI11
aI31
aI34
aI25
aI29
aI11
aI19
aI28
aI11
aI9
aI11
aI29
aI24
aI9
aI11
aI11
aI11
aI11
aI11
aI11
aI20
aI11
aI17
aI11
aI11
aI17
aI11
aI11
aI11
aI8
aI17
aI11
aI11
aI19
aI11
aI11
aI11
aI9
aI20
aI11
aI10
aI19
aI25
aI10
aI15
aI9
aI14
aI9
aI9
aI17
aI15
aI9
aI9
aI8
aI15
aI9
aI8
aI17
aI10
aI11
aI11
aI10
aI13
aI11
aI10
aI8
aI11
aI10
aI11
aI10
aI10
aI17
aI11
aI7
aI10
aI9
aI9
aI12
aI9
aI11
aI14
aI9
aI11
aI15
aI7
aI8
aI8
aI17
aI9
aI9
aI10
aI9
aI18
aI8
aI10
aI9
aI13
aI9
aI9
aI14
aI9
aI11
aI9
aI26
aI17
aI25
aI7
aI11
aI8
aI13
aI9
aI9
aI17
aI9
aI2
aI9
aI2
aI9
aI16
aI2
aI2
aI2
aI2
aI2
aI2
aI2
aa(lp18
I32
aI34
aI34
aI11
aI32
aI37
aI38
aI38
aI38
aI38
aI37
aI37
aI34
aI11
aI27
aI37
aI38
aI38
aI38
aI38
aI38
aI38
aI37
aI24
aI37
aI37
aI38
aI38
aI38
aI38
aI38
aI2
aI2
aI2
aI2
aI25
aI25
aI27
aI2
aI2
aI2
aI11
aI25
aI21
aI2
aI25
aI11
aI2
aI25
aI2
aI21
aI21
aI34
aI34
aI2
aI2
aI24
aI2
aI2
aI2
aI25
aI25
aI33
aI37
aI37
aI37
aI38
aI38
aI23
aI11
aI34
aI23
aI34
aI34
aI34
aI31
aI23
aI33
aI25
aI37
aI31
aI38
aI22
aI36
aI36
aI27
aI27
aI37
aI27
aI34
aI27
aI36
aI38
aI37
aI34
aI37
aI11
aI28
aI37
aI34
aI38
aI38
aI38
aI38
aI37
aI36
aI34
aI31
aI34
aI29
aI28
aI11
aI11
aI20
aI11
aI34
aI11
aI32
aI20
aI31
aI36
aI27
aI32
aI10
aI28
aI10
aI29
aI29
aI33
aI37
aI27
aI34
aI35
aI37
aI35
aI35
aI37
aI37
aI32
aI30
aI25
aI11
aI11
aI11
aI25
aI22
aI34
aI35
aI37
aI35
aI34
aI34
aI29
aI10
aI10
aI10
aI29
aI10
aI11
aI25
aI18
aI29
aI31
aI11
aI31
aI11
aI18
aI29
aI35
aI36
aI28
aI24
aI11
aI27
aI11
aI18
aI11
aI11
aI10
aI23
aI31
aI9
aI11
aI10
aI11
aI21
aI11
aI9
aI11
aI9
aI11
aI11
aI11
aI18
aI20
aI11
aI11
aI22
aI20
aI11
aI17
aI11
aI29
aI24
aI29
aI11
aI29
aI11
aI11
aI22
aI11
aI22
aI19
aI11
aI11
aI11
aI11
aI22
aI16
aI17
aI28
aI22
aI11
aI10
aI20
aI33
aI10
aI10
aI11
aI10
aI10
aI15
aI10
aI10
aI9
aI9
aI14
aI11
aI11
aI13
aI11
aI15
aI11
aI17
aI31
aI27
aI11
aI8
aI22
aI9
aI9
aI8
aI10
aI13
aI9
aI10
aI11
aI9
aI7
aI8
aI17
aI16
aI9
aI16
aI15
aI9
aI9
aI9
aI10
aI9
aI9
aI10
aI10
aI9
aI18
aI8
aI11
aI18
aI19
aI7
aI11
aI11
aI22
aI8
aI9
aI9
aI14
aI8
aI8
aI8
aI2
aI9
aI14
aI2
aI2
aI2
aI2
aI2
aI2
aI2
aa(lp19
I31
aI34
aI34
aI34
aI34
aI32
aI37
aI34
aI37
aI27
aI31
aI37
aI37
aI37
aI37
aI11
aI21
aI34
aI37
aI37
aI32
aI21
aI21
aI34
aI27
aI27
aI11
aI31
aI11
aI11
aI26
aI2
aI2
aI2
aI2
aI25
aI11
aI34
aI2
aI2
aI2
aI25
aI21
aI34
aI2
aI25
aI11
aI2
aI11
aI2
aI21
aI25
aI21
aI21
aI2
aI2
aI24
aI2
aI2
aI2
aI25
aI25
aI33
aI37
aI37
aI34
aI34
aI38
aI37
aI27
aI37
aI37
aI38
aI35
aI37
aI36
aI38
aI38
aI37
aI37
aI38
aI27
aI36
aI38
aI38
aI34
aI38
aI38
aI37
aI34
aI37
aI38
aI27
aI36
aI38
aI37
aI35
aI37
aI27
aI11
aI34
aI36
aI37
aI38
aI34
aI37
aI36
aI11
aI25
aI37
aI10
aI31
aI10
aI31
aI19
aI11
aI34
aI32
aI33
aI36
aI36
aI31
aI29
aI28
aI32
aI27
aI37
aI37
aI34
aI27
aI36
aI11
aI11
aI34
aI30
aI37
aI38
aI11
aI34
aI36
aI36
aI37
aI32
aI37
aI25
aI11
aI19
aI31
aI11
aI11
aI33
aI23
aI37
aI34
aI37
aI31
aI37
aI10
aI33
aI28
aI10
aI29
aI23
aI11
aI31
aI37
aI25
aI28
aI31
aI35
aI37
aI11
aI34
aI35
aI29
aI34
aI34
aI23
aI11
aI11
aI21
aI9
aI20
aI10
aI23
aI19
aI10
aI15
aI25
aI9
aI20
aI9
aI18
aI18
aI11
aI11
aI11
aI11
aI11
aI17
aI11
aI11
aI21
aI16
aI26
aI11
aI11
aI11
aI17
aI17
aI11
aI9
aI11
aI16
aI11
aI11
aI23
aI11
aI28
aI34
aI34
aI9
aI11
aI24
aI11
aI9
aI9
aI15
aI14
aI9
aI9
aI17
aI25
aI25
aI11
aI10
aI8
aI11
aI17
aI7
aI16
aI14
aI9
aI9
aI9
aI23
aI11
aI13
aI11
aI11
aI11
aI8
aI10
aI8
aI10
aI9
aI23
aI23
aI16
aI13
aI8
aI17
aI9
aI9
aI17
aI13
aI9
aI15
aI25
aI34
aI8
aI10
aI9
aI9
aI10
aI7
aI11
aI11
aI8
aI8
aI12
aI11
aI8
aI13
aI16
aI17
aI9
aI9
aI2
aI9
aI2
aI9
aI9
aI2
aI2
aI2
aI2
aI2
aI2
aI2
aa(lp20
I34
aI34
aI34
aI34
aI34
aI38
aI38
aI38
aI38
aI38
aI38
aI38
aI38
aI37
aI37
aI38
aI38
aI37
aI38
aI38
aI38
aI34
aI37
aI38
aI38
aI38
aI38
aI36
aI37
aI37
aI37
aI2
aI2
aI2
aI2
aI25
aI25
aI25
aI2
aI2
aI2
aI24
aI24
aI34
aI2
aI25
aI25
aI2
aI25
aI2
aI21
aI25
aI11
aI11
aI2
aI2
aI25
aI2
aI2
aI2
aI25
aI25
aI33
aI35
aI37
aI34
aI38
aI38
aI23
aI34
aI27
aI36
aI37
aI38
aI37
aI38
aI38
aI34
aI34
aI37
aI38
aI38
aI38
aI38
aI37
aI38
aI23
aI36
aI37
aI36
aI38
aI34
aI34
aI34
aI37
aI37
aI38
aI35
aI38
aI38
aI38
aI38
aI38
aI38
aI38
aI11
aI24
aI32
aI24
aI11
aI25
aI37
aI37
aI37
aI37
aI11
aI37
aI37
aI11
aI31
aI33
aI19
aI20
aI11
aI33
aI11
aI33
aI11
aI30
aI33
aI11
aI34
aI37
aI36
aI11
aI30
aI32
aI11
aI25
aI19
aI36
aI11
aI32
aI27
aI35
aI10
aI24
aI24
aI11
aI11
aI33
aI10
aI19
aI11
aI10
aI19
aI27
aI11
aI11
aI11
aI11
aI19
aI11
aI23
aI27
aI30
aI11
aI11
aI10
aI10
aI18
aI10
aI10
aI10
aI11
aI11
aI18
aI11
aI11
aI11
aI22
aI10
aI11
aI10
aI25
aI11
aI11
aI20
aI25
aI18
aI18
aI11
aI11
aI11
aI18
aI17
aI11
aI11
aI9
aI20
aI9
aI9
aI9
aI9
aI21
aI11
aI11
aI19
aI17
aI11
aI11
aI15
aI23
aI11
aI11
aI11
aI11
aI11
aI11
aI17
aI15
aI19
aI11
aI9
aI11
aI9
aI9
aI17
aI11
aI17
aI8
aI17
aI10
aI10
aI11
aI18
aI8
aI22
aI25
aI18
aI11
aI10
aI11
aI10
aI10
aI11
aI27
aI8
aI11
aI23
aI23
aI11
aI9
aI7
aI14
aI20
aI23
aI17
aI8
aI25
aI10
aI9
aI10
aI10
aI10
aI9
aI10
aI9
aI10
aI15
aI14
aI9
aI9
aI15
aI15
aI19
aI11
aI11
aI12
aI8
aI7
aI7
aI8
aI15
aI9
aI9
aI17
aI9
aI2
aI9
aI2
aI16
aI9
aI2
aI2
aI2
aI2
aI2
aI2
aI2
aa(lp21
I34
aI34
aI34
aI34
aI34
aI38
aI38
aI38
aI35
aI37
aI38
aI27
aI37
aI38
aI38
aI24
aI11
aI34
aI36
aI37
aI33
aI37
aI34
aI38
aI38
aI38
aI37
aI36
aI38
aI37
aI38
aI2
aI2
aI2
aI2
aI25
aI25
aI25
aI2
aI2
aI2
aI21
aI25
aI34
aI2
aI24
aI25
aI2
aI25
aI2
aI25
aI34
aI31
aI37
aI2
aI2
aI25
aI2
aI2
aI2
aI25
aI11
aI25
aI28
aI34
aI12
aI11
aI34
aI24
aI34
aI24
aI36
aI11
aI25
aI37
aI37
aI38
aI38
aI38
aI38
aI38
aI38
aI38
aI38
aI37
aI36
aI36
aI37
aI38
aI34
aI21
aI34
aI25
aI28
aI11
aI31
aI11
aI34
aI34
aI11
aI34
aI34
aI37
aI22
aI37
aI36
aI34
aI11
aI27
aI11
aI20
aI32
aI30
aI32
aI27
aI37
aI38
aI38
aI11
aI19
aI10
aI32
aI11
aI11
aI33
aI27
aI30
aI11
aI11
aI11
aI36
aI36
aI11
aI33
aI36
aI34
aI37
aI37
aI11
aI32
aI11
aI31
aI32
aI11
aI11
aI31
aI11
aI28
aI11
aI24
aI19
aI10
aI31
aI34
aI36
aI35
aI30
aI11
aI11
aI11
aI32
aI26
aI11
aI11
aI34
aI20
aI11
aI35
aI10
aI31
aI21
aI21
aI10
aI10
aI25
aI11
aI11
aI11
aI11
aI10
aI11
aI10
aI11
aI10
aI18
aI11
aI11
aI15
aI11
aI22
aI11
aI22
aI11
aI28
aI11
aI11
aI9
aI21
aI21
aI9
aI9
aI11
aI11
aI10
aI11
aI21
aI11
aI11
aI30
aI11
aI29
aI13
aI11
aI11
aI11
aI11
aI18
aI11
aI19
aI9
aI10
aI15
aI11
aI14
aI15
aI17
aI22
aI8
aI11
aI10
aI14
aI16
aI11
aI11
aI11
aI11
aI7
aI18
aI21
aI7
aI9
aI28
aI9
aI9
aI15
aI11
aI11
aI14
aI17
aI11
aI11
aI8
aI10
aI7
aI10
aI18
aI11
aI11
aI13
aI18
aI10
aI16
aI10
aI9
aI17
aI8
aI10
aI8
aI10
aI10
aI10
aI11
aI17
aI10
aI18
aI8
aI11
aI11
aI12
aI8
aI13
aI19
aI14
aI30
aI9
aI9
aI9
aI9
aI2
aI9
aI2
aI2
aI17
aI2
aI2
aI2
aI2
aI2
aI2
aI2
aa(lp22
I34
aI34
aI34
aI34
aI34
aI38
aI38
aI32
aI37
aI37
aI38
aI38
aI38
aI38
aI38
aI38
aI38
aI38
aI38
aI38
aI38
aI38
aI37
aI38
aI38
aI38
aI38
aI38
aI38
aI38
aI38
aI2
aI2
aI2
aI2
aI25
aI25
aI35
aI2
aI2
aI2
aI25
aI25
aI34
aI2
aI21
aI34
aI2
aI25
aI2
aI21
aI25
aI34
aI34
aI2
aI2
aI25
aI2
aI2
aI2
aI25
aI25
aI31
aI37
aI38
aI35
aI37
aI38
aI38
aI27
aI31
aI37
aI37
aI36
aI38
aI38
aI37
aI38
aI38
aI35
aI37
aI34
aI37
aI38
aI38
aI38
aI38
aI38
aI38
aI38
aI38
aI38
aI38
aI38
aI38
aI37
aI38
aI23
aI34
aI37
aI37
aI37
aI35
aI37
aI38
aI38
aI35
aI34
aI36
aI38
aI11
aI36
aI37
aI38
aI38
aI24
aI11
aI37
aI35
aI37
aI11
aI30
aI37
aI34
aI38
aI36
aI37
aI36
aI37
aI30
aI37
aI36
aI37
aI38
aI38
aI34
aI36
aI36
aI38
aI38
aI34
aI28
aI28
aI36
aI22
aI11
aI32
aI33
aI37
aI37
aI37
aI38
aI38
aI38
aI38
aI38
aI36
aI22
aI37
aI37
aI38
aI38
aI38
aI36
aI37
aI37
aI22
aI28
aI34
aI35
aI38
aI37
aI35
aI37
aI37
aI37
aI37
aI34
aI38
aI38
aI34
aI32
aI35
aI10
aI11
aI11
aI11
aI10
aI22
aI11
aI11
aI31
aI18
aI18
aI18
aI11
aI11
aI11
aI11
aI18
aI19
aI11
aI11
aI15
aI35
aI11
aI11
aI11
aI22
aI11
aI11
aI9
aI19
aI11
aI16
aI11
aI11
aI18
aI11
aI9
aI14
aI26
aI16
aI9
aI28
aI34
aI19
aI10
aI20
aI34
aI21
aI10
aI19
aI31
aI11
aI11
aI15
aI21
aI9
aI7
aI19
aI9
aI19
aI9
aI17
aI16
aI16
aI21
aI9
aI23
aI11
aI14
aI10
aI13
aI27
aI9
aI9
aI9
aI8
aI9
aI8
aI15
aI15
aI25
aI10
aI14
aI27
aI9
aI10
aI9
aI8
aI17
aI9
aI9
aI9
aI7
aI17
aI15
aI8
aI8
aI12
aI13
aI9
aI16
aI9
aI15
aI17
aI9
aI14
aI20
aI2
aI9
aI17
aI2
aI2
aI2
aI2
aI2
aI2
aI2
aa(lp23
I34
aI34
aI34
aI34
aI34
aI38
aI38
aI38
aI38
aI38
aI38
aI38
aI38
aI38
aI38
aI37
aI37
aI38
aI38
aI38
aI34
aI37
aI37
aI34
aI34
aI34
aI37
aI37
aI37
aI37
aI38
aI2
aI2
aI2
aI2
aI25
aI25
aI34
aI2
aI2
aI2
aI25
aI25
aI34
aI2
aI25
aI24
aI2
aI25
aI2
aI25
aI25
aI31
aI11
aI2
aI2
aI25
aI2
aI2
aI2
aI25
aI25
aI33
aI37
aI35
aI33
aI23
aI27
aI34
aI35
aI36
aI37
aI31
aI22
aI34
aI37
aI22
aI33
aI34
aI32
aI34
aI24
aI36
aI34
aI34
aI37
aI37
aI37
aI23
aI11
aI21
aI35
aI37
aI37
aI36
aI32
aI34
aI36
aI37
aI27
aI27
aI36
aI32
aI11
aI25
aI24
aI34
aI37
aI37
aI25
aI25
aI31
aI36
aI11
aI11
aI25
aI19
aI34
aI36
aI37
aI32
aI37
aI37
aI11
aI33
aI33
aI37
aI37
aI27
aI35
aI19
aI10
aI11
aI32
aI30
aI34
aI37
aI38
aI27
aI25
aI19
aI24
aI11
aI20
aI11
aI11
aI11
aI22
aI25
aI11
aI11
aI25
aI10
aI11
aI10
aI10
aI18
aI29
aI10
aI33
aI11
aI11
aI11
aI11
aI27
aI11
aI18
aI21
aI31
aI18
aI18
aI11
aI11
aI21
aI25
aI34
aI11
aI11
aI11
aI11
aI21
aI19
aI29
aI35
aI11
aI23
aI10
aI18
aI31
aI34
aI25
aI11
aI11
aI18
aI27
aI11
aI11
aI11
aI23
aI11
aI11
aI11
aI11
aI9
aI18
aI9
aI20
aI11
aI21
aI22
aI11
aI14
aI11
aI11
aI20
aI9
aI23
aI11
aI9
aI9
aI10
aI10
aI17
aI10
aI11
aI10
aI9
aI8
aI11
aI10
aI16
aI16
aI21
aI11
aI11
aI11
aI7
aI11
aI11
aI7
aI18
aI11
aI9
aI9
aI8
aI9
aI11
aI16
aI11
aI27
aI11
aI8
aI9
aI7
aI17
aI10
aI17
aI23
aI8
aI8
aI8
aI8
aI9
aI9
aI10
aI9
aI9
aI8
aI14
aI8
aI8
aI17
aI9
aI9
aI16
aI11
aI17
aI11
aI11
aI8
aI7
aI8
aI9
aI9
aI17
aI9
aI9
aI22
aI27
aI14
aI2
aI9
aI9
aI2
aI2
aI2
aI2
aI2
aI2
aI2
aa(lp24
I34
aI34
aI34
aI34
aI34
aI34
aI36
aI37
aI38
aI32
aI37
aI37
aI38
aI38
aI38
aI24
aI37
aI37
aI38
aI38
aI38
aI38
aI34
aI37
aI37
aI37
aI38
aI38
aI35
aI38
aI27
aI2
aI2
aI2
aI2
aI25
aI24
aI34
aI2
aI2
aI2
aI25
aI11
aI25
aI2
aI25
aI21
aI2
aI25
aI2
aI25
aI34
aI37
aI37
aI2
aI2
aI24
aI2
aI2
aI2
aI25
aI25
aI32
aI35
aI37
aI35
aI31
aI37
aI38
aI38
aI38
aI36
aI36
aI34
aI37
aI38
aI10
aI31
aI10
aI31
aI10
aI28
aI29
aI34
aI34
aI34
aI37
aI38
aI35
aI34
aI37
aI34
aI36
aI37
aI23
aI23
aI27
aI36
aI37
aI38
aI37
aI38
aI11
aI27
aI19
aI19
aI10
aI31
aI34
aI10
aI34
aI37
aI11
aI37
aI11
aI20
aI11
aI34
aI36
aI28
aI11
aI32
aI28
aI30
aI37
aI35
aI36
aI27
aI33
aI33
aI27
aI37
aI37
aI37
aI37
aI22
aI36
aI36
aI28
aI10
aI10
aI23
aI31
aI34
aI34
aI35
aI29
aI29
aI37
aI26
aI31
aI37
aI37
aI35
aI38
aI29
aI10
aI31
aI11
aI31
aI33
aI37
aI38
aI38
aI38
aI38
aI38
aI38
aI35
aI34
aI33
aI34
aI29
aI35
aI37
aI11
aI27
aI27
aI35
aI34
aI34
aI32
aI23
aI32
aI11
aI11
aI19
aI9
aI16
aI29
aI9
aI29
aI25
aI25
aI9
aI9
aI11
aI9
aI16
aI16
aI28
aI9
aI9
aI8
aI10
aI9
aI20
aI15
aI30
aI11
aI10
aI16
aI14
aI22
aI10
aI10
aI11
aI19
aI9
aI14
aI16
aI14
aI9
aI9
aI10
aI17
aI9
aI15
aI9
aI9
aI8
aI17
aI15
aI9
aI9
aI9
aI12
aI9
aI10
aI13
aI18
aI10
aI9
aI9
aI9
aI11
aI18
aI21
aI10
aI23
aI23
aI23
aI9
aI7
aI9
aI9
aI11
aI18
aI7
aI13
aI8
aI9
aI10
aI17
aI27
aI19
aI21
aI28
aI10
aI8
aI8
aI9
aI9
aI16
aI14
aI7
aI17
aI9
aI7
aI13
aI7
aI8
aI14
aI9
aI9
aI25
aI9
aI16
aI14
aI8
aI2
aI9
aI9
aI2
aI2
aI2
aI2
aI2
aI2
aI2
aa(lp25
I34
aI34
aI34
aI34
aI34
aI38
aI38
aI38
aI38
aI38
aI36
aI38
aI38
aI38
aI38
aI38
aI38
aI38
aI34
aI37
aI38
aI38
aI38
aI38
aI34
aI37
aI38
aI37
aI38
aI24
aI36
aI2
aI2
aI2
aI2
aI25
aI21
aI11
aI2
aI2
aI2
aI25
aI25
aI24
aI2
aI25
aI11
aI2
aI21
aI2
aI25
aI34
aI35
aI11
aI2
aI2
aI25
aI2
aI2
aI2
aI25
aI25
aI33
aI25
aI34
aI37
aI38
aI38
aI38
aI38
aI38
aI38
aI38
aI25
aI36
aI37
aI37
aI38
aI37
aI34
aI37
aI11
aI34
aI37
aI34
aI38
aI38
aI38
aI38
aI38
aI37
aI37
aI36
aI38
aI38
aI38
aI23
aI34
aI36
aI36
aI37
aI38
aI38
aI38
aI38
aI38
aI38
aI11
aI19
aI34
aI36
aI27
aI30
aI36
aI35
aI37
aI37
aI37
aI24
aI34
aI34
aI32
aI27
aI37
aI37
aI38
aI38
aI23
aI30
aI37
aI32
aI37
aI36
aI37
aI11
aI28
aI37
aI11
aI36
aI31
aI22
aI29
aI33
aI27
aI38
aI34
aI24
aI11
aI25
aI36
aI36
aI30
aI30
aI31
aI37
aI34
aI37
aI35
aI34
aI33
aI11
aI31
aI18
aI34
aI27
aI11
aI24
aI21
aI11
aI21
aI11
aI11
aI11
aI30
aI11
aI31
aI11
aI27
aI25
aI23
aI31
aI35
aI11
aI30
aI28
aI33
aI29
aI15
aI11
aI10
aI20
aI27
aI31
aI24
aI11
aI17
aI27
aI29
aI35
aI37
aI24
aI37
aI22
aI31
aI36
aI38
aI38
aI36
aI9
aI11
aI11
aI23
aI29
aI25
aI19
aI17
aI27
aI9
aI11
aI10
aI18
aI18
aI17
aI10
aI29
aI9
aI25
aI10
aI18
aI10
aI10
aI10
aI10
aI17
aI11
aI18
aI8
aI11
aI27
aI16
aI17
aI10
aI11
aI10
aI10
aI11
aI11
aI7
aI30
aI17
aI11
aI8
aI10
aI8
aI9
aI10
aI11
aI30
aI13
aI9
aI9
aI15
aI9
aI9
aI9
aI15
aI10
aI9
aI18
aI9
aI9
aI10
aI10
aI9
aI17
aI8
aI18
aI18
aI8
aI8
aI8
aI12
aI8
aI8
aI9
aI9
aI15
aI9
aI15
aI9
aI2
aI16
aI17
aI2
aI2
aI2
aI2
aI2
aI2
aI2
aa.