(lp0
S'AAAAATAATAAAAATAAAACGCAAAATGANNANNNTNNNNNNNNNNNNNNNNNNNNNNNNNNNNNNNNNNNANANNCCNCCAATAAGCTTAACANCGAANNAANNNAAACAGTATAATATCTGCTTTCATCANACAGCTATCCANNGTGNNANNNANTGACNNANNNACTAANNACACATCTACNNNANNTANNNANACC'
p1
aS'AAAAAAAATAATAAATAAATAATTTCATTNNANNNANNNNNNNNNNNNNNNNNNNNNNNNNNNNNNNNNNNCNANNTANCNTACAAATTTCGTANACCANNATNNNCAAACACACACTATATTTACCACTACNGCTCTACAAACANACGNNTANNTTTCAANNANNNACTCANNTACCTTCCTTNNNCNCTCNNNANCAC'
p2
aS'TCATTTCTTTGATTTGGTCATTGGTAAGATNCNNNCNNNNNNNNNNNNNNNNNNNNNNNNNNNNNNNNNNNANCNNGGNAACCTGCTGTTGCTTNGAAANNTTNNNGTTTTCCATAATAGAAGCAACGCGAGNAGTAGACTCCTNNTTTNNANNNGNAAGCNNCNNNTTATANNCATATACCTGNNNTNNCGNNNTNTGG'
p3
aS'AGAAAAAAAAACTAAATAACTCAATCAGANNANNNTNNNNNNNNNNNNNNNNNNNNNNNNNNNNNNNNNNNCNCNNCANCNACATGTTCTTCCANAAACNNGANNNCCATACCAACACCCTCATCATATCAANCAACATAATAAANAAANNTCNNAAATTGNNANNNACCTTNNGGCTGTACTANNNANAAANNNANACA'
p4
aS'CACCATGATTATAACCAGTGTTTCCAGTTNNTNNNGNNNNNNNNNNNNNNNNNNNNNNNNNNNNNNNNNNNGNCNNTTNANCGCAATCTGCCGANCACTNNCGNNNCAATCATGACTTCGTGATAAAATATTNAGTGTGAGGTTANAACNNAANNGAAGAGNNANNNGTAGGNNAAGAGTGTAGNNNTNGGGNNNCNCCG'
p5
aS'AAAAAAAATTAAAAAAGAAAACCGTCAGAANANNNCNNNNNNNNNNNNNNNNNNNNNNNNNNNNNNNNNNNTNANNCGNAAAACATTAACCAAANCAAANNAANNNACTTCCTCACATATACGTATCCAACCNGAGACCGACGGNNGACNNANNNGNGACANNANNNCATTGNNTGATACACATNNNCNNAANNNCNTGA'
p6
aS'CAGGGTTATTTGAATATCTATAACAACTANNTNNNANNNNNNNNNNNNNNNNNNNNNNNNNNNNNNNNNNNTNANNAGNTNAATCAAGATGATGNTCGTNNAGNNNTCCGTTGCTGCCATCTCAAAAACATTNGGACTGCTCCGCNTCCNNCTNNGACTGANNTNNNTCGCCNNATGACGAATTNNNCNTCANNNANTGA'
p7
aS'AATTTTCTCATTTTCCGCCAGCAGTCCGCTTCNNNTNNNNNNNNNNNNNNNNNNNNNNNNNNNNNNNNNNNTNANNATNATTTTTCGACTCATCNAAAANNTCNNNAAGTGTTAACTTCTGCGTCATGGAAGNAAAAAAACCCTNNAATNNANNNANGCAANNCNNNTTTAANNAAACGCGCAANNNANNGANNNANTTT'
p8
aS'ACAAAAAAATAAATGAAAAAGCAGACTAGAGANNNCNNNNNNNNNNNNNNNNNNNNNNNNNNNNNNNNNNNANANNTTNAAATAAGACACTCAANAACANNACNNNATCATCAACACTTCATATATATAGATNAAAACACCGCANNAGANNANNNANACAANNANNNTAAACNNTAGACAGACANNNCNNTANNNANTTT'
p9
aS'ACATACAAAAGACAAATAACATCATGTGAANANNNANNNNNNNNNNNNNNNNNNNNNNNNNNNNNNNNNNNCNANNAANAGCAGCTAAATGTTTNACTGNNCCNNNTCATGTACTCGCAAACAACAATAATCNTATGACTAACCNNGCANNANNNANACAGNNANNNAGACANNAAGCACAAAGNNNGNNAGNNNANCAG'
p10
aS'AAAAAAAACCAAATAATAAATCTCTCAGTANANNNCNNNNNNNNNNNNNNNNNNNNNNNNNNNNNNNNNNNTNTNNTTNATATAAGTAACAAACNTCCCNNCCNNNGCAGTTGAACAATTAACTTCACATAANATACCGTATATANGAANNCTNNAAAACANNANNNATATANNGTTACTGAGANNNANGATNNNANTGA'
p11
aS'AAAATGAATTACATGAGAAATACTGATGTAAANNNGNNNNNNNNNNNNNNNNNNNNNNNNNNNNNNNNNNNCNANNCCNTACCCATAATCCCAGNCGTCNNAANNNTACAATAACAATATTATACTTCCTTANAATACTACACANNCAGNNTNNNTNATAANNANNNCAAAANNCATCACACACNNNCNNAANNNANACT'
p12
aS'AAGTTTAAGATTGCTGAGGGTCAGTGGTATCGNNNTNNNNNNNNNNNNNNNNNNNNNNNNNNNNNNNNNNNTNANNGCNTCCCATTCATTCAGGNACCGNNTTNNNGTGATTTGCAAGAACGCGTACTTATTNGCCACCATGATNNTGANNANNNTNTCCANNCNNNTCAGANNTTGCAGTGGANNNGNNAGNNNANATT'
p13
aS'AGAAAAAATACAATAATACGGAACGCCGATAANNNANNNNNNNNNNNNNNNNNNNNNNNNNNNNNNNNNNNTNGNNATNCCACAATGTGCAATANCACANNGANNNAAACCTCCCCACCATCTTACACTGACNCTCATAGGTGGNNAGTNNCNNNGNAACANNGNNNTTAAGNNTATAAACCCCNNNCNNCANNNTNTAA'
p14
aS'AAAAAAAATAAAACAATATTTAAAAATGGAGANNNANNNNNNNNNNNNNNNNNNNNNNNNNNNNNNNNNNNCNCNNCANTAAATGGAGATACAGNCGACNNAANNNACACACTAAATTAATGTAGTTCATCTNAATGATAAACANNGCTNNGNNNANTAAANNANNNAAACANNAGCACACATCNNNANNTANNNTNCTT'
p15
aS'ATAAAAAAAAACAATCTACAGCGATCTTAANANNNANNNNNNNNNNNNNNNNNNNNNNNNNNNNNNNNNNNCNANNACNAACTCCTGATCGCAANATCCNNCANNNAACACCACCTTCACCCTCTTCACCTCNCCTCCAACTCCCNCCANNCTNNATCTCANNANNNCACTCNNCCAGAACACCNNNCNCTANNNTNCCT'
p16
aS'AAAAAAAAATAAAAAATGAAGCGATCGAAAGANNNANNNNNNNNNNNNNNNNNNNNNNNNNNNNNNNNNNNTNTNNCTNTTCGAAGAAGACACANAACANNCANNNAAAACTCAGATTGTTATTCTTAAAAANTCATTTCACAANNACANNANNNANATATNNCNNNCAATANNAAGAAACAAANNNANNCGNNNGNCTG'
p17
aS'CTTAAAAACAATATAAAACACGCAATAGCACANNNGNNNNNNNNNNNNNNNNNNNNNNNNNNNNNNNNNNNTNANNTTNTGCATAATTTCCATANCATTNNCCNNNGATGAATATATGTCAACTGTTTACAANTCTCTCAAAAANNCACNNANNNTNATCANNANNNAAATANNATAGACAACANNNANNTANNNANACA'
p18
aS'GGACAGATTTGTCATTGTGAGCATTTTCATCCNNNANNNNNNNNNNNNNNNNNNNNNNNNNNNNNNNNNNNGNANNAGNGACAGCTTGGTTTTTNGTGANNTGNNNCATTCTTTAGCTCCTAGACCTTTAGCNACAATGTCCATNNCTTNNANNNCNAAAGNNCNNNGCGTANNGAAAGAGTGTNNNCNNCANNNGNCGC'
p19
aS'ATAAACAATAACAAAAAGCATGAACCTGAANANNNANNNNNNNNNNNNNNNNNNNNNNNNNNNNNNNNNNNTNTNNATNTTTACAAGATTCCTANAAACNNACNNNACAATTCTTTTAAGAAATAAGACAAANAAACACTACCATNAGANNATNNATAACANNANNNAACAANNTAAGTGCTAGNNNANTCANNNANCAT'
p20
aS'AAAAACAATAAATACATGATGGAACCTGANNANNNCNNNNNNNNNNNNNNNNNNNNNNNNNNNNNNNNNNNGNANNATNTNACCATCACAACACNAAACNNCANNNCCCGTTTATAAGTATGTTATAGTTAANCCACACAAAACANACANNAANNAAATAANNANNNAAGTGNNCACGACTAACNNNANGTANNNANTTA'
p21
aS'AAAACCAAAAAAAATATGAGGACCTCCGCAAANNNANNNNNNNNNNNNNNNNNNNNNNNNNNNNNNNNNNNCNANNACNACCACATAGAGGGCGNCCCANNACNNNAACCCCTTCATACTAGTTTCACATCANTATCACGACGANNATCNNANNNANATACNNCNNNAATCANNACGTCCTCATNNNCNNAANNNCNTCA'
p22
aS'ATAAAAAATTTTAAAAAGAATTGACCTTTAGTNNNCNNNNNNNNNNNNNNNNNNNNNNNNNNNNNNNNNNNTNTNNTTNTTTTATTTTGCTTCCNCACANNCCNNNTATTGTCGTACCCCTTCTTCTCATAANAATCCTTTTCCTNCCCNNATNNTTCATTNNANNNACCAANNCCCTCATAACNNNCNTCCNNNANCTC'
p23
aS'ATAAACAAAAAAAATAATAAGAAAAACGAAACNNNCNNNNNNNNNNNNNNNNNNNNNNNNNNNNNNNNNNNANANNAANCACCATTGACACGCTNCCTGCNTTCNNAACAACCTCCTTTGGACATTTCGTGCNTATACTGCCAANNAACNNANNNCNAACANNCNNNACACANNTTCGCCCCCCNNNCNNAANNNCNAAA'
p24
aS'ATAACAAAATAAAAAATCCTCAGATATGTAAANNNANNNNNNNNNNNNNNNNNNNNNNNNNNNNNNNNNNNANGNNTANTAACTATTTATTTGANGAGANNCTNNNTGATTATCACCACAGACACAACAACCNTCCCATGAGACTNATANNATNNTTATATNNANNNACGAANNTAAACATGTANNNANAACNNNANTAC'
p25
a.