(lp0
(lp1
I32
aI33
aI34
aI33
aI27
aI12
aI26
aI27
aI21
aI34
aI36
aI21
aI21
aI37
aI12
aI28
aI31
aI11
aI34
aI11
aI10
aI21
aI23
aI31
aI10
aI21
aI12
aI12
aI21
aI2
aI2
aI25
aI2
aI2
aI2
aI11
aI2
aI2
aI2
aI2
aI2
aI2
aI2
aI2
aI2
aI2
aI2
aI2
aI2
aI2
aI2
aI2
aI2
aI2
aI2
aI2
aI2
aI2
aI2
aI2
aI2
aI2
aI2
aI2
aI2
aI2
aI2
aI2
aI2
aI2
aI2
aI11
aI2
aI25
aI2
aI2
aI11
aI25
aI2
aI25
aI24
aI11
aI11
aI11
aI25
aI11
aI11
aI11
aI11
aI11
aI11
aI11
aI25
aI11
aI2
aI11
aI11
aI11
aI11
aI2
aI2
aI19
aI11
aI2
aI2
aI2
aI25
aI25
aI25
aI10
aI19
aI11
aI27
aI19
aI11
aI24
aI11
aI11
aI20
aI34
aI11
aI20
aI11
aI11
aI25
aI24
aI11
aI11
aI11
aI11
aI25
aI20
aI2
aI19
aI19
aI32
aI10
aI25
aI11
aI11
aI11
aI24
aI11
aI11
aI2
aI2
aI10
aI10
aI10
aI2
aI2
aI25
aI2
aI2
aI2
aI10
aI2
aI10
aI10
aI10
aI10
aI2
aI2
aI10
aI2
aI2
aI2
aI10
aI23
aI10
aI10
aI10
aI2
aI2
aI21
aI21
aI10
aI10
aI10
aI11
aI21
aI11
aI20
aI18
aI2
aI2
aI2
aI10
aI2
aI2
aI18
aI18
aI2
aI2
aI2
aI9
aI2
aI18
aI9
aI9
aa(lp2
I23
aI23
aI31
aI21
aI12
aI23
aI22
aI34
aI27
aI21
aI21
aI12
aI12
aI21
aI12
aI11
aI11
aI11
aI11
aI26
aI31
aI11
aI11
aI11
aI21
aI34
aI31
aI24
aI11
aI2
aI2
aI24
aI2
aI2
aI2
aI11
aI2
aI2
aI2
aI2
aI2
aI2
aI2
aI2
aI2
aI2
aI2
aI2
aI2
aI2
aI2
aI2
aI2
aI2
aI2
aI2
aI2
aI2
aI2
aI2
aI2
aI2
aI2
aI2
aI2
aI2
aI2
aI2
aI2
aI2
aI2
aI11
aI2
aI11
aI2
aI2
aI11
aI11
aI2
aI25
aI2
aI21
aI21
aI11
aI21
aI19
aI25
aI11
aI21
aI11
aI11
aI11
aI11
aI11
aI2
aI11
aI19
aI11
aI25
aI2
aI2
aI25
aI11
aI2
aI2
aI2
aI10
aI24
aI10
aI10
aI10
aI25
aI11
aI19
aI10
aI19
aI10
aI11
aI11
aI11
aI11
aI25
aI11
aI11
aI24
aI11
aI11
aI19
aI11
aI25
aI33
aI11
aI2
aI10
aI10
aI10
aI10
aI10
aI24
aI11
aI11
aI11
aI22
aI19
aI32
aI2
aI25
aI10
aI10
aI2
aI2
aI10
aI10
aI2
aI2
aI10
aI10
aI10
aI10
aI21
aI31
aI2
aI2
aI10
aI2
aI2
aI2
aI20
aI18
aI18
aI10
aI18
aI2
aI2
aI10
aI18
aI10
aI18
aI9
aI11
aI11
aI11
aI18
aI11
aI2
aI2
aI2
aI9
aI2
aI9
aI9
aI21
aI2
aI2
aI2
aI9
aI2
aI9
aI9
aI9
aa(lp3
I21
aI12
aI23
aI32
aI31
aI27
aI27
aI27
aI37
aI37
aI37
aI34
aI12
aI34
aI34
aI37
aI11
aI34
aI37
aI34
aI26
aI27
aI21
aI34
aI31
aI36
aI37
aI34
aI37
aI34
aI2
aI25
aI2
aI2
aI2
aI25
aI2
aI2
aI2
aI2
aI2
aI2
aI2
aI2
aI2
aI2
aI2
aI2
aI2
aI2
aI2
aI2
aI2
aI2
aI2
aI2
aI2
aI2
aI2
aI2
aI2
aI2
aI2
aI2
aI2
aI2
aI2
aI2
aI2
aI2
aI2
aI25
aI2
aI25
aI2
aI2
aI11
aI25
aI2
aI25
aI34
aI31
aI35
aI35
aI31
aI37
aI37
aI36
aI37
aI27
aI11
aI34
aI11
aI34
aI2
aI24
aI34
aI35
aI36
aI2
aI2
aI11
aI21
aI2
aI2
aI2
aI24
aI25
aI35
aI37
aI35
aI24
aI34
aI37
aI35
aI37
aI37
aI38
aI38
aI24
aI33
aI11
aI25
aI30
aI37
aI34
aI32
aI34
aI22
aI10
aI23
aI10
aI2
aI25
aI32
aI37
aI35
aI10
aI11
aI32
aI20
aI36
aI23
aI11
aI2
aI2
aI25
aI10
aI25
aI2
aI2
aI25
aI2
aI2
aI2
aI10
aI2
aI25
aI31
aI10
aI18
aI2
aI2
aI10
aI2
aI2
aI2
aI10
aI23
aI10
aI31
aI10
aI2
aI2
aI21
aI20
aI29
aI10
aI31
aI25
aI24
aI34
aI22
aI11
aI2
aI2
aI2
aI19
aI2
aI2
aI9
aI18
aI2
aI2
aI2
aI21
aI2
aI21
aI19
aI31
aa(lp4
I21
aI12
aI23
aI31
aI32
aI31
aI34
aI21
aI10
aI23
aI34
aI23
aI12
aI26
aI37
aI36
aI31
aI31
aI34
aI11
aI11
aI11
aI11
aI34
aI21
aI36
aI36
aI34
aI11
aI2
aI2
aI11
aI2
aI2
aI2
aI24
aI2
aI2
aI2
aI2
aI2
aI2
aI2
aI2
aI2
aI2
aI2
aI2
aI2
aI2
aI2
aI2
aI2
aI2
aI2
aI2
aI2
aI2
aI2
aI2
aI2
aI2
aI2
aI2
aI2
aI2
aI2
aI2
aI2
aI2
aI2
aI11
aI2
aI21
aI2
aI2
aI11
aI24
aI2
aI11
aI2
aI11
aI11
aI11
aI11
aI11
aI27
aI11
aI11
aI11
aI11
aI11
aI11
aI20
aI2
aI11
aI11
aI11
aI33
aI2
aI2
aI10
aI10
aI2
aI2
aI2
aI19
aI10
aI10
aI10
aI25
aI11
aI11
aI24
aI20
aI19
aI19
aI23
aI10
aI19
aI19
aI10
aI11
aI11
aI11
aI23
aI11
aI11
aI20
aI11
aI11
aI11
aI2
aI10
aI23
aI10
aI10
aI18
aI11
aI11
aI20
aI11
aI11
aI11
aI11
aI2
aI25
aI10
aI25
aI2
aI2
aI10
aI18
aI2
aI2
aI25
aI25
aI10
aI10
aI10
aI22
aI2
aI2
aI10
aI2
aI2
aI2
aI10
aI10
aI23
aI10
aI18
aI2
aI2
aI9
aI9
aI9
aI9
aI9
aI20
aI22
aI11
aI18
aI18
aI2
aI2
aI2
aI9
aI2
aI9
aI16
aI9
aI2
aI2
aI2
aI21
aI2
aI20
aI14
aI9
aa(lp5
I23
aI32
aI34
aI24
aI34
aI37
aI35
aI34
aI36
aI27
aI36
aI27
aI12
aI34
aI34
aI34
aI34
aI35
aI11
aI34
aI36
aI37
aI37
aI37
aI38
aI35
aI31
aI27
aI11
aI2
aI2
aI21
aI2
aI2
aI2
aI11
aI2
aI2
aI2
aI2
aI2
aI2
aI2
aI2
aI2
aI2
aI2
aI2
aI2
aI2
aI2
aI2
aI2
aI2
aI2
aI2
aI2
aI2
aI2
aI2
aI2
aI2
aI2
aI2
aI2
aI2
aI2
aI2
aI2
aI2
aI2
aI25
aI2
aI25
aI2
aI2
aI11
aI25
aI2
aI11
aI2
aI25
aI25
aI32
aI37
aI35
aI37
aI38
aI38
aI37
aI36
aI37
aI29
aI34
aI2
aI24
aI34
aI37
aI21
aI2
aI2
aI25
aI24
aI2
aI2
aI2
aI25
aI25
aI30
aI25
aI11
aI36
aI11
aI24
aI36
aI37
aI11
aI32
aI36
aI22
aI33
aI35
aI11
aI25
aI11
aI11
aI25
aI36
aI24
aI36
aI11
aI11
aI2
aI10
aI10
aI24
aI28
aI37
aI34
aI37
aI30
aI37
aI38
aI34
aI37
aI2
aI25
aI25
aI10
aI2
aI2
aI25
aI10
aI2
aI2
aI25
aI25
aI35
aI29
aI28
aI11
aI2
aI2
aI10
aI2
aI2
aI2
aI21
aI18
aI23
aI35
aI30
aI2
aI2
aI21
aI10
aI10
aI23
aI18
aI20
aI31
aI28
aI32
aI11
aI2
aI2
aI2
aI18
aI2
aI18
aI18
aI9
aI2
aI2
aI2
aI9
aI2
aI18
aI20
aI20
aa(lp6
I33
aI34
aI34
aI12
aI32
aI34
aI37
aI31
aI31
aI21
aI34
aI36
aI28
aI34
aI27
aI37
aI11
aI11
aI26
aI21
aI11
aI11
aI23
aI10
aI21
aI23
aI12
aI33
aI34
aI34
aI2
aI24
aI2
aI2
aI2
aI11
aI2
aI2
aI2
aI2
aI2
aI2
aI2
aI2
aI2
aI2
aI2
aI2
aI2
aI2
aI2
aI2
aI2
aI2
aI2
aI2
aI2
aI2
aI2
aI2
aI2
aI2
aI2
aI2
aI2
aI2
aI2
aI2
aI2
aI2
aI2
aI11
aI2
aI21
aI2
aI2
aI11
aI11
aI2
aI11
aI11
aI11
aI19
aI24
aI34
aI11
aI20
aI11
aI27
aI11
aI11
aI25
aI11
aI25
aI2
aI25
aI25
aI10
aI10
aI2
aI2
aI10
aI10
aI2
aI2
aI2
aI19
aI10
aI10
aI24
aI32
aI11
aI25
aI11
aI34
aI33
aI28
aI11
aI22
aI34
aI20
aI11
aI11
aI11
aI11
aI11
aI11
aI19
aI20
aI11
aI11
aI10
aI2
aI10
aI21
aI10
aI25
aI21
aI10
aI10
aI10
aI10
aI10
aI23
aI2
aI2
aI25
aI10
aI10
aI2
aI2
aI10
aI2
aI2
aI2
aI18
aI2
aI9
aI9
aI9
aI9
aI2
aI2
aI18
aI2
aI2
aI2
aI9
aI9
aI9
aI9
aI9
aI2
aI2
aI9
aI9
aI9
aI19
aI9
aI11
aI21
aI11
aI11
aI11
aI2
aI2
aI2
aI9
aI2
aI2
aI21
aI9
aI2
aI2
aI2
aI9
aI2
aI9
aI9
aI9
aa(lp7
I34
aI33
aI27
aI33
aI27
aI36
aI37
aI35
aI36
aI37
aI34
aI37
aI37
aI38
aI34
aI36
aI37
aI21
aI11
aI34
aI36
aI24
aI36
aI37
aI38
aI38
aI35
aI37
aI38
aI2
aI2
aI11
aI2
aI2
aI2
aI25
aI2
aI2
aI2
aI2
aI2
aI2
aI2
aI2
aI2
aI2
aI2
aI2
aI2
aI2
aI2
aI2
aI2
aI2
aI2
aI2
aI2
aI2
aI2
aI2
aI2
aI2
aI2
aI2
aI2
aI2
aI2
aI2
aI2
aI2
aI2
aI21
aI2
aI25
aI2
aI2
aI11
aI21
aI2
aI25
aI2
aI25
aI11
aI11
aI24
aI25
aI21
aI33
aI37
aI34
aI37
aI34
aI36
aI24
aI2
aI11
aI24
aI24
aI33
aI2
aI2
aI11
aI25
aI2
aI2
aI2
aI19
aI25
aI11
aI30
aI37
aI23
aI11
aI34
aI30
aI11
aI34
aI30
aI36
aI37
aI34
aI27
aI11
aI36
aI20
aI37
aI38
aI34
aI28
aI19
aI20
aI34
aI2
aI25
aI10
aI19
aI10
aI24
aI19
aI28
aI20
aI32
aI27
aI10
aI23
aI2
aI19
aI10
aI19
aI2
aI2
aI25
aI10
aI2
aI2
aI10
aI10
aI10
aI23
aI35
aI35
aI2
aI2
aI10
aI2
aI2
aI2
aI10
aI23
aI21
aI18
aI21
aI2
aI2
aI21
aI10
aI23
aI10
aI19
aI10
aI10
aI16
aI19
aI31
aI2
aI2
aI2
aI9
aI2
aI18
aI21
aI31
aI2
aI2
aI2
aI18
aI2
aI21
aI19
aI28
aa(lp8
I23
aI32
aI21
aI23
aI23
aI21
aI34
aI27
aI35
aI37
aI36
aI36
aI38
aI38
aI38
aI38
aI31
aI22
aI31
aI31
aI28
aI34
aI37
aI11
aI26
aI34
aI37
aI33
aI23
aI23
aI23
aI21
aI2
aI2
aI2
aI25
aI2
aI2
aI2
aI2
aI2
aI2
aI2
aI2
aI2
aI2
aI2
aI2
aI2
aI2
aI2
aI2
aI2
aI2
aI2
aI2
aI2
aI2
aI2
aI2
aI2
aI2
aI2
aI2
aI2
aI2
aI2
aI2
aI2
aI2
aI2
aI25
aI2
aI25
aI2
aI2
aI25
aI11
aI2
aI25
aI25
aI34
aI28
aI33
aI36
aI11
aI31
aI33
aI34
aI34
aI22
aI37
aI34
aI20
aI2
aI11
aI11
aI19
aI33
aI2
aI2
aI11
aI25
aI2
aI2
aI2
aI25
aI25
aI10
aI10
aI10
aI25
aI36
aI36
aI37
aI38
aI24
aI30
aI37
aI36
aI11
aI11
aI19
aI23
aI31
aI34
aI36
aI24
aI20
aI36
aI37
aI11
aI2
aI10
aI23
aI10
aI32
aI30
aI31
aI10
aI21
aI10
aI21
aI11
aI2
aI2
aI18
aI10
aI10
aI2
aI2
aI10
aI2
aI2
aI2
aI25
aI2
aI18
aI18
aI10
aI26
aI2
aI2
aI10
aI2
aI2
aI2
aI20
aI18
aI21
aI25
aI9
aI2
aI2
aI21
aI20
aI9
aI9
aI31
aI25
aI9
aI26
aI36
aI9
aI2
aI2
aI2
aI9
aI2
aI2
aI19
aI21
aI2
aI2
aI2
aI19
aI2
aI9
aI9
aI9
aa(lp9
I23
aI21
aI21
aI32
aI12
aI12
aI34
aI31
aI37
aI11
aI34
aI12
aI34
aI12
aI12
aI27
aI28
aI37
aI24
aI11
aI33
aI26
aI34
aI11
aI11
aI11
aI12
aI12
aI11
aI26
aI11
aI21
aI2
aI2
aI2
aI11
aI2
aI2
aI2
aI2
aI2
aI2
aI2
aI2
aI2
aI2
aI2
aI2
aI2
aI2
aI2
aI2
aI2
aI2
aI2
aI2
aI2
aI2
aI2
aI2
aI2
aI2
aI2
aI2
aI2
aI2
aI2
aI2
aI2
aI2
aI2
aI11
aI2
aI11
aI2
aI2
aI11
aI11
aI2
aI11
aI11
aI11
aI11
aI11
aI11
aI11
aI21
aI32
aI23
aI11
aI11
aI33
aI23
aI11
aI2
aI11
aI25
aI11
aI11
aI2
aI2
aI11
aI11
aI2
aI2
aI2
aI10
aI10
aI10
aI24
aI10
aI11
aI27
aI11
aI11
aI20
aI10
aI11
aI11
aI11
aI11
aI20
aI11
aI24
aI20
aI24
aI11
aI11
aI20
aI20
aI11
aI11
aI2
aI19
aI10
aI10
aI25
aI10
aI11
aI11
aI10
aI10
aI10
aI23
aI2
aI2
aI25
aI10
aI21
aI2
aI2
aI25
aI2
aI2
aI2
aI25
aI2
aI25
aI10
aI21
aI10
aI2
aI2
aI21
aI2
aI2
aI2
aI10
aI23
aI23
aI10
aI10
aI2
aI2
aI19
aI18
aI10
aI10
aI9
aI18
aI11
aI11
aI11
aI11
aI2
aI2
aI2
aI9
aI2
aI2
aI20
aI9
aI2
aI2
aI2
aI9
aI2
aI9
aI9
aI9
aa(lp10
I23
aI23
aI32
aI23
aI12
aI12
aI28
aI34
aI34
aI11
aI12
aI12
aI26
aI12
aI12
aI34
aI11
aI11
aI11
aI21
aI26
aI11
aI21
aI34
aI11
aI27
aI12
aI27
aI34
aI34
aI2
aI25
aI2
aI2
aI2
aI24
aI2
aI2
aI2
aI2
aI2
aI2
aI2
aI2
aI2
aI2
aI2
aI2
aI2
aI2
aI2
aI2
aI2
aI2
aI2
aI2
aI2
aI2
aI2
aI2
aI2
aI2
aI2
aI2
aI2
aI2
aI2
aI2
aI2
aI2
aI2
aI21
aI2
aI11
aI2
aI2
aI11
aI11
aI2
aI25
aI11
aI25
aI11
aI11
aI11
aI11
aI25
aI11
aI24
aI31
aI11
aI11
aI34
aI11
aI2
aI11
aI24
aI11
aI11
aI2
aI2
aI19
aI24
aI2
aI2
aI2
aI24
aI25
aI19
aI28
aI27
aI25
aI24
aI31
aI11
aI11
aI10
aI10
aI23
aI10
aI10
aI11
aI25
aI19
aI25
aI11
aI32
aI28
aI11
aI34
aI11
aI11
aI2
aI10
aI19
aI24
aI10
aI32
aI28
aI11
aI11
aI11
aI19
aI11
aI2
aI2
aI10
aI10
aI32
aI2
aI2
aI25
aI2
aI2
aI2
aI10
aI2
aI10
aI21
aI10
aI10
aI2
aI2
aI10
aI2
aI2
aI2
aI21
aI23
aI23
aI10
aI10
aI2
aI2
aI10
aI20
aI23
aI10
aI20
aI11
aI11
aI20
aI11
aI11
aI2
aI2
aI2
aI9
aI2
aI2
aI21
aI9
aI2
aI2
aI2
aI9
aI2
aI9
aI19
aI19
aa(lp11
I12
aI12
aI23
aI32
aI32
aI21
aI21
aI31
aI11
aI11
aI28
aI34
aI12
aI12
aI12
aI26
aI26
aI21
aI27
aI11
aI21
aI11
aI11
aI11
aI21
aI11
aI12
aI27
aI11
aI34
aI2
aI25
aI2
aI2
aI2
aI11
aI2
aI2
aI2
aI2
aI2
aI2
aI2
aI2
aI2
aI2
aI2
aI2
aI2
aI2
aI2
aI2
aI2
aI2
aI2
aI2
aI2
aI2
aI2
aI2
aI2
aI2
aI2
aI2
aI2
aI2
aI2
aI2
aI2
aI2
aI2
aI24
aI2
aI11
aI2
aI2
aI11
aI11
aI2
aI11
aI21
aI25
aI11
aI11
aI27
aI11
aI27
aI27
aI11
aI27
aI34
aI11
aI25
aI11
aI2
aI11
aI11
aI11
aI19
aI2
aI2
aI25
aI10
aI2
aI2
aI2
aI10
aI10
aI10
aI24
aI32
aI20
aI11
aI11
aI11
aI11
aI30
aI19
aI27
aI11
aI11
aI11
aI34
aI11
aI30
aI11
aI11
aI30
aI32
aI11
aI20
aI34
aI2
aI10
aI10
aI21
aI19
aI19
aI10
aI32
aI10
aI11
aI23
aI11
aI11
aI2
aI10
aI10
aI18
aI2
aI2
aI10
aI18
aI2
aI2
aI10
aI25
aI21
aI10
aI10
aI18
aI2
aI2
aI10
aI2
aI2
aI2
aI10
aI23
aI29
aI23
aI10
aI2
aI2
aI21
aI10
aI18
aI10
aI20
aI11
aI11
aI11
aI18
aI11
aI2
aI2
aI2
aI20
aI2
aI9
aI9
aI9
aI2
aI2
aI2
aI9
aI2
aI9
aI9
aI19
aa(lp12
I23
aI12
aI23
aI31
aI12
aI12
aI28
aI21
aI11
aI27
aI36
aI27
aI34
aI12
aI21
aI34
aI11
aI11
aI27
aI26
aI27
aI11
aI11
aI11
aI11
aI11
aI12
aI21
aI11
aI27
aI11
aI34
aI2
aI2
aI2
aI11
aI2
aI2
aI2
aI2
aI2
aI2
aI2
aI2
aI2
aI2
aI2
aI2
aI2
aI2
aI2
aI2
aI2
aI2
aI2
aI2
aI2
aI2
aI2
aI2
aI2
aI2
aI2
aI2
aI2
aI2
aI2
aI2
aI2
aI2
aI2
aI25
aI2
aI11
aI2
aI2
aI11
aI11
aI2
aI25
aI21
aI11
aI11
aI25
aI25
aI33
aI11
aI11
aI11
aI27
aI11
aI11
aI25
aI11
aI2
aI11
aI21
aI24
aI21
aI2
aI2
aI24
aI21
aI2
aI2
aI2
aI11
aI25
aI11
aI25
aI25
aI11
aI11
aI24
aI11
aI24
aI25
aI11
aI11
aI11
aI25
aI11
aI25
aI11
aI11
aI11
aI34
aI11
aI11
aI11
aI20
aI11
aI2
aI10
aI19
aI24
aI10
aI10
aI11
aI24
aI11
aI11
aI11
aI11
aI2
aI2
aI10
aI10
aI10
aI2
aI2
aI10
aI2
aI2
aI2
aI19
aI2
aI21
aI10
aI21
aI21
aI2
aI2
aI18
aI2
aI2
aI2
aI10
aI10
aI10
aI10
aI21
aI2
aI2
aI21
aI21
aI10
aI10
aI10
aI11
aI11
aI21
aI10
aI10
aI2
aI2
aI2
aI10
aI2
aI2
aI10
aI25
aI2
aI2
aI2
aI21
aI2
aI9
aI20
aI9
aa(lp13
I32
aI33
aI31
aI21
aI23
aI34
aI34
aI37
aI28
aI34
aI34
aI12
aI26
aI27
aI12
aI36
aI34
aI37
aI34
aI34
aI31
aI34
aI34
aI36
aI37
aI11
aI34
aI12
aI34
aI34
aI27
aI31
aI2
aI2
aI2
aI25
aI2
aI2
aI2
aI2
aI2
aI2
aI2
aI2
aI2
aI2
aI2
aI2
aI2
aI2
aI2
aI2
aI2
aI2
aI2
aI2
aI2
aI2
aI2
aI2
aI2
aI2
aI2
aI2
aI2
aI2
aI2
aI2
aI2
aI2
aI2
aI25
aI2
aI25
aI2
aI2
aI25
aI25
aI2
aI25
aI34
aI27
aI35
aI35
aI36
aI37
aI37
aI38
aI11
aI37
aI37
aI37
aI30
aI34
aI2
aI25
aI34
aI37
aI27
aI2
aI2
aI19
aI25
aI2
aI2
aI2
aI25
aI25
aI19
aI33
aI11
aI34
aI33
aI24
aI37
aI36
aI37
aI38
aI37
aI38
aI36
aI25
aI25
aI33
aI29
aI33
aI34
aI34
aI32
aI37
aI31
aI37
aI2
aI25
aI19
aI30
aI37
aI35
aI34
aI37
aI11
aI36
aI37
aI34
aI2
aI2
aI25
aI19
aI25
aI2
aI2
aI25
aI2
aI2
aI2
aI18
aI2
aI25
aI10
aI21
aI28
aI2
aI2
aI21
aI2
aI2
aI2
aI21
aI18
aI31
aI34
aI10
aI2
aI2
aI10
aI10
aI18
aI23
aI31
aI24
aI24
aI19
aI23
aI35
aI2
aI2
aI2
aI19
aI2
aI2
aI21
aI9
aI2
aI2
aI2
aI21
aI2
aI20
aI9
aI9
aa(lp14
I23
aI12
aI23
aI32
aI34
aI12
aI34
aI33
aI31
aI11
aI12
aI12
aI26
aI12
aI26
aI26
aI11
aI11
aI27
aI11
aI11
aI11
aI11
aI23
aI11
aI23
aI10
aI10
aI31
aI10
aI22
aI21
aI2
aI2
aI2
aI11
aI2
aI2
aI2
aI2
aI2
aI2
aI2
aI2
aI2
aI2
aI2
aI2
aI2
aI2
aI2
aI2
aI2
aI2
aI2
aI2
aI2
aI2
aI2
aI2
aI2
aI2
aI2
aI2
aI2
aI2
aI2
aI2
aI2
aI2
aI2
aI21
aI2
aI11
aI2
aI2
aI11
aI11
aI2
aI11
aI11
aI24
aI11
aI11
aI19
aI11
aI11
aI11
aI11
aI20
aI24
aI24
aI20
aI37
aI2
aI11
aI10
aI10
aI32
aI2
aI2
aI19
aI24
aI2
aI2
aI2
aI19
aI25
aI10
aI10
aI10
aI11
aI33
aI11
aI30
aI23
aI30
aI10
aI10
aI11
aI11
aI11
aI11
aI11
aI25
aI11
aI11
aI22
aI11
aI11
aI11
aI11
aI2
aI10
aI10
aI10
aI10
aI10
aI11
aI11
aI11
aI11
aI23
aI21
aI2
aI2
aI18
aI10
aI10
aI2
aI2
aI10
aI2
aI2
aI2
aI10
aI2
aI10
aI10
aI10
aI10
aI2
aI2
aI10
aI2
aI2
aI2
aI10
aI23
aI9
aI9
aI19
aI2
aI2
aI9
aI9
aI9
aI9
aI20
aI11
aI11
aI11
aI9
aI19
aI2
aI2
aI2
aI19
aI2
aI2
aI9
aI16
aI2
aI2
aI2
aI9
aI2
aI9
aI9
aI19
aa(lp15
I23
aI12
aI32
aI33
aI12
aI23
aI31
aI31
aI26
aI26
aI34
aI37
aI34
aI12
aI12
aI28
aI11
aI11
aI11
aI11
aI21
aI11
aI27
aI27
aI11
aI11
aI12
aI26
aI11
aI26
aI21
aI11
aI2
aI2
aI2
aI11
aI2
aI2
aI2
aI2
aI2
aI2
aI2
aI2
aI2
aI2
aI2
aI2
aI2
aI2
aI2
aI2
aI2
aI2
aI2
aI2
aI2
aI2
aI2
aI2
aI2
aI2
aI2
aI2
aI2
aI2
aI2
aI2
aI2
aI2
aI2
aI25
aI2
aI25
aI2
aI2
aI21
aI11
aI2
aI11
aI25
aI21
aI11
aI19
aI11
aI11
aI21
aI25
aI11
aI11
aI11
aI11
aI11
aI11
aI2
aI11
aI11
aI19
aI11
aI2
aI2
aI25
aI11
aI2
aI2
aI2
aI25
aI10
aI25
aI19
aI25
aI10
aI11
aI11
aI11
aI20
aI20
aI24
aI11
aI11
aI11
aI11
aI25
aI11
aI11
aI24
aI11
aI11
aI11
aI11
aI11
aI11
aI2
aI10
aI23
aI10
aI10
aI10
aI11
aI11
aI11
aI11
aI20
aI11
aI2
aI2
aI10
aI10
aI10
aI2
aI2
aI10
aI2
aI2
aI2
aI10
aI2
aI10
aI18
aI21
aI10
aI2
aI2
aI21
aI2
aI2
aI2
aI10
aI18
aI10
aI10
aI18
aI2
aI2
aI10
aI10
aI10
aI10
aI20
aI11
aI11
aI19
aI11
aI11
aI2
aI2
aI2
aI9
aI2
aI2
aI9
aI21
aI2
aI2
aI2
aI9
aI2
aI9
aI16
aI19
aa(lp16
I12
aI12
aI23
aI32
aI33
aI24
aI34
aI31
aI10
aI23
aI31
aI12
aI34
aI34
aI12
aI26
aI11
aI21
aI11
aI11
aI11
aI11
aI10
aI23
aI11
aI25
aI26
aI12
aI21
aI27
aI2
aI25
aI2
aI2
aI2
aI25
aI2
aI2
aI2
aI2
aI2
aI2
aI2
aI2
aI2
aI2
aI2
aI2
aI2
aI2
aI2
aI2
aI2
aI2
aI2
aI2
aI2
aI2
aI2
aI2
aI2
aI2
aI2
aI2
aI2
aI2
aI2
aI2
aI2
aI2
aI2
aI11
aI2
aI24
aI2
aI2
aI11
aI25
aI2
aI11
aI19
aI19
aI19
aI32
aI31
aI32
aI32
aI35
aI11
aI11
aI11
aI11
aI23
aI29
aI2
aI25
aI19
aI33
aI10
aI2
aI2
aI25
aI10
aI2
aI2
aI2
aI10
aI10
aI10
aI25
aI10
aI23
aI10
aI10
aI33
aI11
aI11
aI11
aI11
aI11
aI11
aI11
aI25
aI10
aI19
aI11
aI11
aI11
aI11
aI11
aI23
aI33
aI2
aI18
aI10
aI10
aI25
aI29
aI11
aI21
aI23
aI11
aI34
aI11
aI11
aI2
aI25
aI10
aI10
aI2
aI2
aI21
aI10
aI2
aI2
aI25
aI10
aI10
aI10
aI18
aI22
aI2
aI2
aI20
aI2
aI2
aI2
aI9
aI9
aI9
aI9
aI9
aI2
aI2
aI9
aI19
aI9
aI9
aI19
aI27
aI11
aI11
aI16
aI9
aI2
aI2
aI2
aI16
aI2
aI16
aI9
aI9
aI2
aI2
aI2
aI9
aI2
aI9
aI14
aI9
aa(lp17
I23
aI23
aI12
aI23
aI32
aI31
aI37
aI38
aI23
aI21
aI34
aI37
aI26
aI36
aI31
aI37
aI11
aI11
aI27
aI26
aI11
aI11
aI10
aI23
aI11
aI21
aI10
aI12
aI11
aI23
aI10
aI26
aI2
aI2
aI2
aI11
aI2
aI2
aI2
aI2
aI2
aI2
aI2
aI2
aI2
aI2
aI2
aI2
aI2
aI2
aI2
aI2
aI2
aI2
aI2
aI2
aI2
aI2
aI2
aI2
aI2
aI2
aI2
aI2
aI2
aI2
aI2
aI2
aI2
aI2
aI2
aI24
aI2
aI11
aI2
aI2
aI11
aI11
aI2
aI11
aI11
aI19
aI19
aI11
aI34
aI11
aI10
aI24
aI11
aI11
aI11
aI19
aI19
aI25
aI2
aI25
aI19
aI32
aI10
aI2
aI2
aI19
aI25
aI2
aI2
aI2
aI25
aI25
aI25
aI10
aI19
aI11
aI11
aI19
aI11
aI11
aI11
aI11
aI11
aI20
aI11
aI11
aI23
aI11
aI23
aI24
aI32
aI32
aI30
aI11
aI25
aI28
aI2
aI10
aI10
aI23
aI29
aI10
aI11
aI11
aI22
aI11
aI11
aI20
aI2
aI2
aI10
aI25
aI31
aI2
aI2
aI25
aI2
aI2
aI2
aI10
aI2
aI25
aI21
aI19
aI10
aI2
aI2
aI10
aI2
aI2
aI2
aI20
aI21
aI18
aI9
aI9
aI2
aI2
aI9
aI20
aI9
aI9
aI9
aI11
aI11
aI11
aI11
aI19
aI2
aI2
aI2
aI9
aI2
aI2
aI9
aI19
aI2
aI2
aI2
aI21
aI2
aI9
aI19
aI9
aa(lp18
I12
aI23
aI12
aI23
aI31
aI37
aI27
aI26
aI33
aI11
aI34
aI12
aI34
aI12
aI12
aI34
aI11
aI11
aI11
aI26
aI11
aI11
aI23
aI10
aI21
aI11
aI12
aI12
aI11
aI11
aI21
aI11
aI2
aI2
aI2
aI11
aI2
aI2
aI2
aI2
aI2
aI2
aI2
aI2
aI2
aI2
aI2
aI2
aI2
aI2
aI2
aI2
aI2
aI2
aI2
aI2
aI2
aI2
aI2
aI2
aI2
aI2
aI2
aI2
aI2
aI2
aI2
aI2
aI2
aI2
aI2
aI11
aI2
aI21
aI2
aI2
aI25
aI25
aI2
aI11
aI11
aI11
aI21
aI19
aI11
aI34
aI36
aI11
aI11
aI27
aI11
aI11
aI24
aI27
aI2
aI11
aI11
aI24
aI11
aI2
aI2
aI25
aI11
aI2
aI2
aI2
aI11
aI11
aI25
aI11
aI25
aI25
aI34
aI11
aI11
aI11
aI11
aI11
aI20
aI11
aI25
aI11
aI25
aI11
aI11
aI11
aI24
aI11
aI25
aI20
aI11
aI30
aI2
aI19
aI10
aI10
aI10
aI10
aI11
aI11
aI11
aI11
aI11
aI10
aI2
aI2
aI10
aI25
aI10
aI2
aI2
aI25
aI2
aI2
aI2
aI18
aI2
aI10
aI21
aI10
aI10
aI2
aI2
aI21
aI2
aI2
aI2
aI21
aI23
aI31
aI10
aI18
aI2
aI2
aI18
aI10
aI10
aI10
aI10
aI18
aI11
aI20
aI11
aI11
aI2
aI2
aI2
aI10
aI2
aI2
aI9
aI9
aI2
aI2
aI2
aI9
aI2
aI9
aI9
aI18
aa(lp19
I12
aI23
aI32
aI32
aI33
aI12
aI34
aI28
aI21
aI34
aI34
aI36
aI37
aI34
aI27
aI21
aI34
aI21
aI27
aI28
aI28
aI34
aI34
aI31
aI34
aI11
aI36
aI32
aI37
aI37
aI34
aI37
aI2
aI2
aI2
aI25
aI2
aI2
aI2
aI2
aI2
aI2
aI2
aI2
aI2
aI2
aI2
aI2
aI2
aI2
aI2
aI2
aI2
aI2
aI2
aI2
aI2
aI2
aI2
aI2
aI2
aI2
aI2
aI2
aI2
aI2
aI2
aI2
aI2
aI2
aI2
aI25
aI2
aI25
aI2
aI2
aI21
aI24
aI2
aI21
aI25
aI34
aI35
aI37
aI34
aI23
aI37
aI34
aI36
aI38
aI37
aI38
aI38
aI38
aI2
aI25
aI21
aI25
aI24
aI2
aI2
aI19
aI11
aI2
aI2
aI2
aI11
aI25
aI11
aI25
aI32
aI36
aI37
aI32
aI37
aI24
aI37
aI37
aI38
aI11
aI25
aI34
aI11
aI34
aI11
aI11
aI32
aI36
aI32
aI30
aI20
aI33
aI2
aI10
aI24
aI32
aI34
aI10
aI19
aI34
aI11
aI24
aI34
aI11
aI2
aI2
aI25
aI10
aI25
aI2
aI2
aI25
aI2
aI2
aI2
aI21
aI2
aI10
aI21
aI10
aI10
aI2
aI2
aI21
aI2
aI2
aI2
aI21
aI10
aI10
aI21
aI23
aI2
aI2
aI21
aI21
aI29
aI35
aI21
aI31
aI11
aI22
aI31
aI31
aI2
aI2
aI2
aI19
aI2
aI2
aI20
aI10
aI2
aI2
aI2
aI21
aI2
aI18
aI9
aI19
aa(lp20
I32
aI12
aI32
aI33
aI34
aI12
aI34
aI36
aI21
aI34
aI36
aI21
aI34
aI31
aI12
aI34
aI23
aI21
aI11
aI11
aI11
aI11
aI26
aI28
aI31
aI31
aI12
aI21
aI26
aI36
aI2
aI25
aI2
aI2
aI2
aI11
aI2
aI2
aI2
aI2
aI2
aI2
aI2
aI2
aI2
aI2
aI2
aI2
aI2
aI2
aI2
aI2
aI2
aI2
aI2
aI2
aI2
aI2
aI2
aI2
aI2
aI2
aI2
aI2
aI2
aI2
aI2
aI2
aI2
aI2
aI2
aI11
aI2
aI11
aI2
aI2
aI11
aI24
aI2
aI11
aI25
aI11
aI11
aI11
aI11
aI24
aI11
aI24
aI11
aI24
aI11
aI20
aI30
aI36
aI2
aI11
aI25
aI32
aI11
aI2
aI2
aI19
aI25
aI2
aI2
aI2
aI11
aI11
aI11
aI11
aI11
aI20
aI24
aI11
aI11
aI11
aI11
aI11
aI25
aI11
aI11
aI11
aI11
aI11
aI25
aI11
aI11
aI19
aI11
aI19
aI32
aI32
aI2
aI25
aI10
aI32
aI35
aI10
aI36
aI36
aI11
aI19
aI11
aI22
aI11
aI2
aI10
aI10
aI10
aI2
aI2
aI25
aI10
aI2
aI2
aI21
aI18
aI25
aI10
aI21
aI11
aI2
aI2
aI21
aI2
aI2
aI2
aI21
aI23
aI10
aI28
aI29
aI2
aI2
aI10
aI10
aI23
aI10
aI20
aI11
aI11
aI11
aI22
aI11
aI2
aI2
aI2
aI10
aI2
aI10
aI9
aI9
aI2
aI2
aI2
aI9
aI2
aI18
aI18
aI18
aa(lp21
I23
aI12
aI31
aI33
aI12
aI12
aI12
aI26
aI34
aI32
aI37
aI27
aI12
aI28
aI21
aI34
aI11
aI27
aI26
aI26
aI11
aI11
aI26
aI21
aI11
aI34
aI26
aI26
aI31
aI2
aI2
aI21
aI2
aI2
aI2
aI25
aI2
aI2
aI2
aI2
aI2
aI2
aI2
aI2
aI2
aI2
aI2
aI2
aI2
aI2
aI2
aI2
aI2
aI2
aI2
aI2
aI2
aI2
aI2
aI2
aI2
aI2
aI2
aI2
aI2
aI2
aI2
aI2
aI2
aI2
aI2
aI11
aI2
aI24
aI2
aI2
aI11
aI25
aI2
aI11
aI2
aI11
aI21
aI19
aI11
aI24
aI11
aI11
aI11
aI11
aI21
aI30
aI11
aI21
aI2
aI11
aI11
aI11
aI25
aI2
aI2
aI25
aI11
aI2
aI2
aI2
aI11
aI11
aI11
aI25
aI10
aI32
aI25
aI19
aI11
aI11
aI27
aI11
aI11
aI11
aI11
aI20
aI11
aI11
aI20
aI25
aI20
aI11
aI11
aI25
aI20
aI11
aI2
aI10
aI19
aI10
aI19
aI24
aI10
aI23
aI10
aI21
aI11
aI25
aI11
aI2
aI10
aI25
aI10
aI2
aI2
aI21
aI10
aI2
aI2
aI10
aI18
aI25
aI21
aI10
aI11
aI2
aI2
aI18
aI2
aI2
aI2
aI21
aI10
aI10
aI21
aI18
aI2
aI2
aI10
aI20
aI19
aI23
aI10
aI18
aI10
aI10
aI18
aI18
aI2
aI2
aI2
aI18
aI2
aI9
aI9
aI9
aI2
aI2
aI2
aI9
aI2
aI16
aI19
aI9
aa(lp22
I12
aI23
aI32
aI34
aI12
aI21
aI28
aI12
aI21
aI21
aI25
aI21
aI10
aI10
aI21
aI26
aI21
aI11
aI27
aI21
aI11
aI11
aI11
aI11
aI11
aI26
aI34
aI23
aI23
aI31
aI21
aI23
aI2
aI2
aI2
aI11
aI2
aI2
aI2
aI2
aI2
aI2
aI2
aI2
aI2
aI2
aI2
aI2
aI2
aI2
aI2
aI2
aI2
aI2
aI2
aI2
aI2
aI2
aI2
aI2
aI2
aI2
aI2
aI2
aI2
aI2
aI2
aI2
aI2
aI2
aI2
aI11
aI2
aI11
aI2
aI2
aI11
aI11
aI2
aI11
aI25
aI11
aI11
aI11
aI19
aI11
aI11
aI11
aI11
aI11
aI11
aI11
aI23
aI10
aI2
aI25
aI10
aI19
aI35
aI2
aI2
aI10
aI10
aI2
aI2
aI2
aI25
aI19
aI10
aI10
aI10
aI10
aI19
aI11
aI11
aI11
aI27
aI20
aI32
aI37
aI11
aI11
aI20
aI19
aI11
aI11
aI11
aI19
aI11
aI34
aI11
aI34
aI2
aI10
aI10
aI18
aI18
aI23
aI37
aI10
aI10
aI10
aI10
aI10
aI2
aI2
aI10
aI10
aI10
aI2
aI2
aI10
aI2
aI2
aI2
aI25
aI2
aI10
aI21
aI10
aI10
aI2
aI2
aI9
aI2
aI2
aI2
aI9
aI9
aI9
aI9
aI9
aI2
aI2
aI16
aI19
aI16
aI9
aI9
aI9
aI9
aI28
aI11
aI20
aI2
aI2
aI2
aI19
aI2
aI2
aI9
aI9
aI2
aI2
aI2
aI9
aI2
aI9
aI9
aI18
aa(lp23
I32
aI31
aI12
aI12
aI12
aI28
aI21
aI31
aI37
aI31
aI12
aI12
aI26
aI12
aI26
aI34
aI11
aI11
aI28
aI31
aI11
aI11
aI11
aI11
aI11
aI26
aI34
aI24
aI37
aI11
aI11
aI26
aI2
aI2
aI2
aI25
aI2
aI2
aI2
aI2
aI2
aI2
aI2
aI2
aI2
aI2
aI2
aI2
aI2
aI2
aI2
aI2
aI2
aI2
aI2
aI2
aI2
aI2
aI2
aI2
aI2
aI2
aI2
aI2
aI2
aI2
aI2
aI2
aI2
aI2
aI2
aI11
aI2
aI11
aI2
aI2
aI11
aI21
aI2
aI24
aI11
aI11
aI11
aI11
aI27
aI20
aI11
aI11
aI27
aI11
aI11
aI24
aI11
aI11
aI2
aI11
aI11
aI11
aI25
aI2
aI2
aI11
aI11
aI2
aI2
aI2
aI11
aI11
aI19
aI11
aI10
aI25
aI11
aI10
aI10
aI11
aI10
aI10
aI11
aI10
aI10
aI25
aI11
aI11
aI25
aI11
aI11
aI11
aI25
aI11
aI11
aI34
aI2
aI10
aI24
aI10
aI10
aI10
aI11
aI11
aI11
aI22
aI11
aI11
aI20
aI2
aI10
aI10
aI10
aI2
aI2
aI25
aI25
aI2
aI2
aI10
aI10
aI10
aI18
aI21
aI11
aI2
aI2
aI21
aI2
aI2
aI2
aI10
aI23
aI10
aI18
aI10
aI2
aI2
aI10
aI20
aI10
aI10
aI10
aI11
aI22
aI11
aI11
aI19
aI2
aI2
aI2
aI10
aI2
aI20
aI9
aI21
aI2
aI2
aI2
aI18
aI2
aI9
aI9
aI19
aa(lp24
I12
aI21
aI32
aI32
aI23
aI12
aI26
aI36
aI36
aI27
aI35
aI10
aI31
aI21
aI21
aI34
aI11
aI11
aI21
aI11
aI11
aI11
aI11
aI26
aI34
aI11
aI12
aI10
aI23
aI34
aI31
aI10
aI2
aI2
aI2
aI11
aI2
aI2
aI2
aI2
aI2
aI2
aI2
aI2
aI2
aI2
aI2
aI2
aI2
aI2
aI2
aI2
aI2
aI2
aI2
aI2
aI2
aI2
aI2
aI2
aI2
aI2
aI2
aI2
aI2
aI2
aI2
aI2
aI2
aI2
aI2
aI21
aI2
aI25
aI2
aI2
aI11
aI11
aI2
aI11
aI11
aI11
aI11
aI11
aI11
aI11
aI11
aI27
aI11
aI11
aI11
aI11
aI10
aI23
aI2
aI25
aI10
aI33
aI10
aI10
aI2
aI10
aI10
aI10
aI2
aI2
aI25
aI24
aI10
aI19
aI32
aI23
aI10
aI11
aI19
aI11
aI11
aI11
aI11
aI11
aI11
aI11
aI11
aI11
aI11
aI24
aI32
aI11
aI11
aI21
aI10
aI19
aI2
aI10
aI10
aI10
aI10
aI10
aI11
aI11
aI11
aI11
aI22
aI29
aI2
aI2
aI10
aI10
aI10
aI2
aI2
aI10
aI2
aI2
aI2
aI18
aI2
aI25
aI10
aI10
aI10
aI2
aI2
aI10
aI2
aI2
aI2
aI20
aI10
aI19
aI9
aI21
aI2
aI2
aI18
aI9
aI18
aI9
aI9
aI9
aI9
aI9
aI9
aI9
aI2
aI2
aI2
aI19
aI2
aI2
aI9
aI21
aI2
aI2
aI2
aI9
aI2
aI9
aI14
aI9
aa(lp25
I23
aI23
aI12
aI21
aI12
aI21
aI34
aI37
aI23
aI11
aI28
aI21
aI34
aI21
aI12
aI31
aI11
aI11
aI11
aI27
aI26
aI11
aI11
aI11
aI11
aI11
aI21
aI27
aI27
aI34
aI11
aI36
aI2
aI2
aI2
aI11
aI2
aI2
aI2
aI2
aI2
aI2
aI2
aI2
aI2
aI2
aI2
aI2
aI2
aI2
aI2
aI2
aI2
aI2
aI2
aI2
aI2
aI2
aI2
aI2
aI2
aI2
aI2
aI2
aI2
aI2
aI2
aI2
aI2
aI2
aI2
aI11
aI2
aI11
aI2
aI2
aI25
aI11
aI2
aI11
aI11
aI25
aI11
aI11
aI27
aI11
aI34
aI11
aI11
aI11
aI11
aI11
aI11
aI21
aI2
aI11
aI11
aI24
aI21
aI2
aI2
aI11
aI11
aI2
aI2
aI2
aI19
aI25
aI30
aI27
aI27
aI11
aI27
aI11
aI11
aI11
aI25
aI20
aI10
aI32
aI19
aI11
aI11
aI11
aI19
aI11
aI24
aI10
aI32
aI32
aI37
aI10
aI2
aI19
aI24
aI10
aI10
aI10
aI11
aI11
aI23
aI11
aI11
aI11
aI11
aI2
aI10
aI19
aI10
aI2
aI2
aI10
aI21
aI2
aI2
aI10
aI10
aI10
aI21
aI21
aI21
aI2
aI2
aI10
aI2
aI2
aI2
aI10
aI18
aI18
aI21
aI10
aI2
aI2
aI18
aI10
aI10
aI10
aI10
aI20
aI11
aI11
aI22
aI31
aI2
aI2
aI2
aI10
aI2
aI9
aI21
aI9
aI2
aI2
aI2
aI9
aI2
aI9
aI18
aI9
aa.